

Microchip Technology PIC LITE Macro Assembler V1.45 build -152302408 
                                                                                               Mon Jul 29 12:41:48 2019

Microchip Technology Omniscient Code Generator v1.45 (Free mode) build 201711160504
     1                           	processor	16F887
     2                           	opt	pw 120
     3                           	opt	lm
     4                           	psect	idataBANK0,global,class=CODE,delta=2
     5                           	psect	idataBANK1,global,class=CODE,delta=2
     6                           	psect	strings,global,class=STRING,delta=2
     7                           	psect	cinit,global,class=CODE,merge=1,delta=2
     8                           	psect	bssCOMMON,global,class=COMMON,space=1,delta=1
     9                           	psect	bssBANK0,global,class=BANK0,space=1,delta=1
    10                           	psect	dataBANK0,global,class=BANK0,space=1,delta=1
    11                           	psect	dataBANK1,global,class=BANK1,space=1,delta=1
    12                           	psect	inittext,global,class=CODE,delta=2
    13                           	psect	cstackCOMMON,global,class=COMMON,space=1,delta=1
    14                           	psect	cstackBANK0,global,class=BANK0,space=1,delta=1
    15                           	psect	maintext,global,class=CODE,split=1,delta=2
    16                           	psect	text1,local,class=CODE,merge=1,delta=2
    17                           	psect	text2,local,class=CODE,merge=1,delta=2
    18                           	psect	text3,local,class=CODE,merge=1,delta=2
    19                           	psect	text4,local,class=CODE,merge=1,delta=2
    20                           	psect	text5,local,class=CODE,merge=1,delta=2
    21                           	psect	text6,local,class=CODE,merge=1,delta=2
    22                           	psect	text7,local,class=CODE,merge=1,delta=2
    23                           	psect	text8,local,class=CODE,merge=1,delta=2,group=2
    24                           	psect	text9,local,class=CODE,merge=1,delta=2,group=2
    25                           	psect	text10,local,class=CODE,merge=1,delta=2
    26                           	psect	text11,local,class=CODE,merge=1,delta=2
    27                           	psect	text12,local,class=CODE,merge=1,delta=2
    28                           	psect	text13,local,class=CODE,merge=1,delta=2
    29                           	psect	text14,local,class=CODE,merge=1,delta=2
    30                           	psect	text15,local,class=CODE,merge=1,delta=2
    31                           	psect	text16,local,class=CODE,merge=1,delta=2
    32                           	psect	text17,local,class=CODE,merge=1,delta=2
    33                           	psect	text18,local,class=CODE,merge=1,delta=2,group=2
    34                           	psect	text19,local,class=CODE,merge=1,delta=2,group=2
    35                           	psect	text20,local,class=CODE,merge=1,delta=2,group=2
    36                           	psect	text21,local,class=CODE,merge=1,delta=2,group=2
    37                           	psect	text22,local,class=CODE,merge=1,delta=2
    38                           	psect	text23,local,class=CODE,merge=1,delta=2
    39                           	psect	text24,local,class=CODE,merge=1,delta=2
    40                           	psect	intentry,global,class=CODE,delta=2
    41                           	dabs	1,0x7E,2
    42  0000                     
    43                           ; Version 1.45
    44                           ; Generated 16/11/2017 GMT
    45                           ; 
    46                           ; Copyright © 2017, Microchip Technology Inc. and its subsidiaries ("Microchip")
    47                           ; All rights reserved.
    48                           ; 
    49                           ; This software is developed by Microchip Technology Inc. and its subsidiaries ("Microch
      +                          ip").
    50                           ; 
    51                           ; Redistribution and use in source and binary forms, with or without modification, are
    52                           ; permitted provided that the following conditions are met:
    53                           ; 
    54                           ;     1. Redistributions of source code must retain the above copyright notice, this lis
      +                          t of
    55                           ;        conditions and the following disclaimer.
    56                           ; 
    57                           ;     2. Redistributions in binary form must reproduce the above copyright notice, this 
      +                          list
    58                           ;        of conditions and the following disclaimer in the documentation and/or other
    59                           ;        materials provided with the distribution.
    60                           ; 
    61                           ;     3. Microchip's name may not be used to endorse or promote products derived from th
      +                          is
    62                           ;        software without specific prior written permission.
    63                           ; 
    64                           ; THIS SOFTWARE IS PROVIDED BY MICROCHIP "AS IS" AND ANY EXPRESS OR IMPLIED WARRANTIES,
    65                           ; INCLUDING, BUT NOT LIMITED TO, THE IMPLIED WARRANTIES OF MERCHANTABILITY AND FITNESS F
      +                          OR
    66                           ; PURPOSE ARE DISCLAIMED.  IN NO EVENT SHALL MICROCHIP BE LIABLE FOR ANY DIRECT, INDIREC
      +                          T,
    67                           ; INCIDENTAL, SPECIAL, EXEMPLARY, OR CONSEQUENTIAL DAMAGES (INCLUDING BUT NOT LIMITED TO
    68                           ; PROCUREMENT OF SUBSTITUTE GOODS OR SERVICES; LOSS OF USE, DATA OR PROFITS; OR BUSINESS
    69                           ; INTERRUPTION) HOWSOEVER CAUSED AND ON ANY THEORY OF LIABILITY, WHETHER IN CONTRACT, ST
      +                          RICT
    70                           ; LIABILITY, OR TORT (INCLUDING NEGLIGENCE OR OTHERWISE) ARISING IN ANY WAY OUT OF THE U
      +                          SE OF
    71                           ; THIS SOFTWARE, EVEN IF ADVISED OF THE POSSIBILITY OF SUCH DAMAGE.
    72                           ; 
    73                           ; 
    74                           ; Code-generator required, PIC16F887 Definitions
    75                           ; 
    76                           ; SFR Addresses
    77  0000                     	;# 
    78  0001                     	;# 
    79  0002                     	;# 
    80  0003                     	;# 
    81  0004                     	;# 
    82  0005                     	;# 
    83  0006                     	;# 
    84  0007                     	;# 
    85  0008                     	;# 
    86  0009                     	;# 
    87  000A                     	;# 
    88  000B                     	;# 
    89  000C                     	;# 
    90  000D                     	;# 
    91  000E                     	;# 
    92  000E                     	;# 
    93  000F                     	;# 
    94  0010                     	;# 
    95  0011                     	;# 
    96  0012                     	;# 
    97  0013                     	;# 
    98  0014                     	;# 
    99  0015                     	;# 
   100  0015                     	;# 
   101  0016                     	;# 
   102  0017                     	;# 
   103  0018                     	;# 
   104  0019                     	;# 
   105  001A                     	;# 
   106  001B                     	;# 
   107  001B                     	;# 
   108  001C                     	;# 
   109  001D                     	;# 
   110  001E                     	;# 
   111  001F                     	;# 
   112  0081                     	;# 
   113  0085                     	;# 
   114  0086                     	;# 
   115  0087                     	;# 
   116  0088                     	;# 
   117  0089                     	;# 
   118  008C                     	;# 
   119  008D                     	;# 
   120  008E                     	;# 
   121  008F                     	;# 
   122  0090                     	;# 
   123  0091                     	;# 
   124  0092                     	;# 
   125  0093                     	;# 
   126  0093                     	;# 
   127  0093                     	;# 
   128  0094                     	;# 
   129  0095                     	;# 
   130  0096                     	;# 
   131  0097                     	;# 
   132  0098                     	;# 
   133  0099                     	;# 
   134  009A                     	;# 
   135  009B                     	;# 
   136  009C                     	;# 
   137  009D                     	;# 
   138  009E                     	;# 
   139  009F                     	;# 
   140  0105                     	;# 
   141  0107                     	;# 
   142  0108                     	;# 
   143  0109                     	;# 
   144  010C                     	;# 
   145  010C                     	;# 
   146  010D                     	;# 
   147  010E                     	;# 
   148  010F                     	;# 
   149  0185                     	;# 
   150  0187                     	;# 
   151  0188                     	;# 
   152  0189                     	;# 
   153  018C                     	;# 
   154  018D                     	;# 
   155  0000                     	;# 
   156  0001                     	;# 
   157  0002                     	;# 
   158  0003                     	;# 
   159  0004                     	;# 
   160  0005                     	;# 
   161  0006                     	;# 
   162  0007                     	;# 
   163  0008                     	;# 
   164  0009                     	;# 
   165  000A                     	;# 
   166  000B                     	;# 
   167  000C                     	;# 
   168  000D                     	;# 
   169  000E                     	;# 
   170  000E                     	;# 
   171  000F                     	;# 
   172  0010                     	;# 
   173  0011                     	;# 
   174  0012                     	;# 
   175  0013                     	;# 
   176  0014                     	;# 
   177  0015                     	;# 
   178  0015                     	;# 
   179  0016                     	;# 
   180  0017                     	;# 
   181  0018                     	;# 
   182  0019                     	;# 
   183  001A                     	;# 
   184  001B                     	;# 
   185  001B                     	;# 
   186  001C                     	;# 
   187  001D                     	;# 
   188  001E                     	;# 
   189  001F                     	;# 
   190  0081                     	;# 
   191  0085                     	;# 
   192  0086                     	;# 
   193  0087                     	;# 
   194  0088                     	;# 
   195  0089                     	;# 
   196  008C                     	;# 
   197  008D                     	;# 
   198  008E                     	;# 
   199  008F                     	;# 
   200  0090                     	;# 
   201  0091                     	;# 
   202  0092                     	;# 
   203  0093                     	;# 
   204  0093                     	;# 
   205  0093                     	;# 
   206  0094                     	;# 
   207  0095                     	;# 
   208  0096                     	;# 
   209  0097                     	;# 
   210  0098                     	;# 
   211  0099                     	;# 
   212  009A                     	;# 
   213  009B                     	;# 
   214  009C                     	;# 
   215  009D                     	;# 
   216  009E                     	;# 
   217  009F                     	;# 
   218  0105                     	;# 
   219  0107                     	;# 
   220  0108                     	;# 
   221  0109                     	;# 
   222  010C                     	;# 
   223  010C                     	;# 
   224  010D                     	;# 
   225  010E                     	;# 
   226  010F                     	;# 
   227  0185                     	;# 
   228  0187                     	;# 
   229  0188                     	;# 
   230  0189                     	;# 
   231  018C                     	;# 
   232  018D                     	;# 
   233  0000                     	;# 
   234  0001                     	;# 
   235  0002                     	;# 
   236  0003                     	;# 
   237  0004                     	;# 
   238  0005                     	;# 
   239  0006                     	;# 
   240  0007                     	;# 
   241  0008                     	;# 
   242  0009                     	;# 
   243  000A                     	;# 
   244  000B                     	;# 
   245  000C                     	;# 
   246  000D                     	;# 
   247  000E                     	;# 
   248  000E                     	;# 
   249  000F                     	;# 
   250  0010                     	;# 
   251  0011                     	;# 
   252  0012                     	;# 
   253  0013                     	;# 
   254  0014                     	;# 
   255  0015                     	;# 
   256  0015                     	;# 
   257  0016                     	;# 
   258  0017                     	;# 
   259  0018                     	;# 
   260  0019                     	;# 
   261  001A                     	;# 
   262  001B                     	;# 
   263  001B                     	;# 
   264  001C                     	;# 
   265  001D                     	;# 
   266  001E                     	;# 
   267  001F                     	;# 
   268  0081                     	;# 
   269  0085                     	;# 
   270  0086                     	;# 
   271  0087                     	;# 
   272  0088                     	;# 
   273  0089                     	;# 
   274  008C                     	;# 
   275  008D                     	;# 
   276  008E                     	;# 
   277  008F                     	;# 
   278  0090                     	;# 
   279  0091                     	;# 
   280  0092                     	;# 
   281  0093                     	;# 
   282  0093                     	;# 
   283  0093                     	;# 
   284  0094                     	;# 
   285  0095                     	;# 
   286  0096                     	;# 
   287  0097                     	;# 
   288  0098                     	;# 
   289  0099                     	;# 
   290  009A                     	;# 
   291  009B                     	;# 
   292  009C                     	;# 
   293  009D                     	;# 
   294  009E                     	;# 
   295  009F                     	;# 
   296  0105                     	;# 
   297  0107                     	;# 
   298  0108                     	;# 
   299  0109                     	;# 
   300  010C                     	;# 
   301  010C                     	;# 
   302  010D                     	;# 
   303  010E                     	;# 
   304  010F                     	;# 
   305  0185                     	;# 
   306  0187                     	;# 
   307  0188                     	;# 
   308  0189                     	;# 
   309  018C                     	;# 
   310  018D                     	;# 
   311  0000                     	;# 
   312  0001                     	;# 
   313  0002                     	;# 
   314  0003                     	;# 
   315  0004                     	;# 
   316  0005                     	;# 
   317  0006                     	;# 
   318  0007                     	;# 
   319  0008                     	;# 
   320  0009                     	;# 
   321  000A                     	;# 
   322  000B                     	;# 
   323  000C                     	;# 
   324  000D                     	;# 
   325  000E                     	;# 
   326  000E                     	;# 
   327  000F                     	;# 
   328  0010                     	;# 
   329  0011                     	;# 
   330  0012                     	;# 
   331  0013                     	;# 
   332  0014                     	;# 
   333  0015                     	;# 
   334  0015                     	;# 
   335  0016                     	;# 
   336  0017                     	;# 
   337  0018                     	;# 
   338  0019                     	;# 
   339  001A                     	;# 
   340  001B                     	;# 
   341  001B                     	;# 
   342  001C                     	;# 
   343  001D                     	;# 
   344  001E                     	;# 
   345  001F                     	;# 
   346  0081                     	;# 
   347  0085                     	;# 
   348  0086                     	;# 
   349  0087                     	;# 
   350  0088                     	;# 
   351  0089                     	;# 
   352  008C                     	;# 
   353  008D                     	;# 
   354  008E                     	;# 
   355  008F                     	;# 
   356  0090                     	;# 
   357  0091                     	;# 
   358  0092                     	;# 
   359  0093                     	;# 
   360  0093                     	;# 
   361  0093                     	;# 
   362  0094                     	;# 
   363  0095                     	;# 
   364  0096                     	;# 
   365  0097                     	;# 
   366  0098                     	;# 
   367  0099                     	;# 
   368  009A                     	;# 
   369  009B                     	;# 
   370  009C                     	;# 
   371  009D                     	;# 
   372  009E                     	;# 
   373  009F                     	;# 
   374  0105                     	;# 
   375  0107                     	;# 
   376  0108                     	;# 
   377  0109                     	;# 
   378  010C                     	;# 
   379  010C                     	;# 
   380  010D                     	;# 
   381  010E                     	;# 
   382  010F                     	;# 
   383  0185                     	;# 
   384  0187                     	;# 
   385  0188                     	;# 
   386  0189                     	;# 
   387  018C                     	;# 
   388  018D                     	;# 
   389  0000                     	;# 
   390  0001                     	;# 
   391  0002                     	;# 
   392  0003                     	;# 
   393  0004                     	;# 
   394  0005                     	;# 
   395  0006                     	;# 
   396  0007                     	;# 
   397  0008                     	;# 
   398  0009                     	;# 
   399  000A                     	;# 
   400  000B                     	;# 
   401  000C                     	;# 
   402  000D                     	;# 
   403  000E                     	;# 
   404  000E                     	;# 
   405  000F                     	;# 
   406  0010                     	;# 
   407  0011                     	;# 
   408  0012                     	;# 
   409  0013                     	;# 
   410  0014                     	;# 
   411  0015                     	;# 
   412  0015                     	;# 
   413  0016                     	;# 
   414  0017                     	;# 
   415  0018                     	;# 
   416  0019                     	;# 
   417  001A                     	;# 
   418  001B                     	;# 
   419  001B                     	;# 
   420  001C                     	;# 
   421  001D                     	;# 
   422  001E                     	;# 
   423  001F                     	;# 
   424  0081                     	;# 
   425  0085                     	;# 
   426  0086                     	;# 
   427  0087                     	;# 
   428  0088                     	;# 
   429  0089                     	;# 
   430  008C                     	;# 
   431  008D                     	;# 
   432  008E                     	;# 
   433  008F                     	;# 
   434  0090                     	;# 
   435  0091                     	;# 
   436  0092                     	;# 
   437  0093                     	;# 
   438  0093                     	;# 
   439  0093                     	;# 
   440  0094                     	;# 
   441  0095                     	;# 
   442  0096                     	;# 
   443  0097                     	;# 
   444  0098                     	;# 
   445  0099                     	;# 
   446  009A                     	;# 
   447  009B                     	;# 
   448  009C                     	;# 
   449  009D                     	;# 
   450  009E                     	;# 
   451  009F                     	;# 
   452  0105                     	;# 
   453  0107                     	;# 
   454  0108                     	;# 
   455  0109                     	;# 
   456  010C                     	;# 
   457  010C                     	;# 
   458  010D                     	;# 
   459  010E                     	;# 
   460  010F                     	;# 
   461  0185                     	;# 
   462  0187                     	;# 
   463  0188                     	;# 
   464  0189                     	;# 
   465  018C                     	;# 
   466  018D                     	;# 
   467  0000                     	;# 
   468  0001                     	;# 
   469  0002                     	;# 
   470  0003                     	;# 
   471  0004                     	;# 
   472  0005                     	;# 
   473  0006                     	;# 
   474  0007                     	;# 
   475  0008                     	;# 
   476  0009                     	;# 
   477  000A                     	;# 
   478  000B                     	;# 
   479  000C                     	;# 
   480  000D                     	;# 
   481  000E                     	;# 
   482  000E                     	;# 
   483  000F                     	;# 
   484  0010                     	;# 
   485  0011                     	;# 
   486  0012                     	;# 
   487  0013                     	;# 
   488  0014                     	;# 
   489  0015                     	;# 
   490  0015                     	;# 
   491  0016                     	;# 
   492  0017                     	;# 
   493  0018                     	;# 
   494  0019                     	;# 
   495  001A                     	;# 
   496  001B                     	;# 
   497  001B                     	;# 
   498  001C                     	;# 
   499  001D                     	;# 
   500  001E                     	;# 
   501  001F                     	;# 
   502  0081                     	;# 
   503  0085                     	;# 
   504  0086                     	;# 
   505  0087                     	;# 
   506  0088                     	;# 
   507  0089                     	;# 
   508  008C                     	;# 
   509  008D                     	;# 
   510  008E                     	;# 
   511  008F                     	;# 
   512  0090                     	;# 
   513  0091                     	;# 
   514  0092                     	;# 
   515  0093                     	;# 
   516  0093                     	;# 
   517  0093                     	;# 
   518  0094                     	;# 
   519  0095                     	;# 
   520  0096                     	;# 
   521  0097                     	;# 
   522  0098                     	;# 
   523  0099                     	;# 
   524  009A                     	;# 
   525  009B                     	;# 
   526  009C                     	;# 
   527  009D                     	;# 
   528  009E                     	;# 
   529  009F                     	;# 
   530  0105                     	;# 
   531  0107                     	;# 
   532  0108                     	;# 
   533  0109                     	;# 
   534  010C                     	;# 
   535  010C                     	;# 
   536  010D                     	;# 
   537  010E                     	;# 
   538  010F                     	;# 
   539  0185                     	;# 
   540  0187                     	;# 
   541  0188                     	;# 
   542  0189                     	;# 
   543  018C                     	;# 
   544  018D                     	;# 
   545  0000                     	;# 
   546  0001                     	;# 
   547  0002                     	;# 
   548  0003                     	;# 
   549  0004                     	;# 
   550  0005                     	;# 
   551  0006                     	;# 
   552  0007                     	;# 
   553  0008                     	;# 
   554  0009                     	;# 
   555  000A                     	;# 
   556  000B                     	;# 
   557  000C                     	;# 
   558  000D                     	;# 
   559  000E                     	;# 
   560  000E                     	;# 
   561  000F                     	;# 
   562  0010                     	;# 
   563  0011                     	;# 
   564  0012                     	;# 
   565  0013                     	;# 
   566  0014                     	;# 
   567  0015                     	;# 
   568  0015                     	;# 
   569  0016                     	;# 
   570  0017                     	;# 
   571  0018                     	;# 
   572  0019                     	;# 
   573  001A                     	;# 
   574  001B                     	;# 
   575  001B                     	;# 
   576  001C                     	;# 
   577  001D                     	;# 
   578  001E                     	;# 
   579  001F                     	;# 
   580  0081                     	;# 
   581  0085                     	;# 
   582  0086                     	;# 
   583  0087                     	;# 
   584  0088                     	;# 
   585  0089                     	;# 
   586  008C                     	;# 
   587  008D                     	;# 
   588  008E                     	;# 
   589  008F                     	;# 
   590  0090                     	;# 
   591  0091                     	;# 
   592  0092                     	;# 
   593  0093                     	;# 
   594  0093                     	;# 
   595  0093                     	;# 
   596  0094                     	;# 
   597  0095                     	;# 
   598  0096                     	;# 
   599  0097                     	;# 
   600  0098                     	;# 
   601  0099                     	;# 
   602  009A                     	;# 
   603  009B                     	;# 
   604  009C                     	;# 
   605  009D                     	;# 
   606  009E                     	;# 
   607  009F                     	;# 
   608  0105                     	;# 
   609  0107                     	;# 
   610  0108                     	;# 
   611  0109                     	;# 
   612  010C                     	;# 
   613  010C                     	;# 
   614  010D                     	;# 
   615  010E                     	;# 
   616  010F                     	;# 
   617  0185                     	;# 
   618  0187                     	;# 
   619  0188                     	;# 
   620  0189                     	;# 
   621  018C                     	;# 
   622  018D                     	;# 
   623  0000                     	;# 
   624  0001                     	;# 
   625  0002                     	;# 
   626  0003                     	;# 
   627  0004                     	;# 
   628  0005                     	;# 
   629  0006                     	;# 
   630  0007                     	;# 
   631  0008                     	;# 
   632  0009                     	;# 
   633  000A                     	;# 
   634  000B                     	;# 
   635  000C                     	;# 
   636  000D                     	;# 
   637  000E                     	;# 
   638  000E                     	;# 
   639  000F                     	;# 
   640  0010                     	;# 
   641  0011                     	;# 
   642  0012                     	;# 
   643  0013                     	;# 
   644  0014                     	;# 
   645  0015                     	;# 
   646  0015                     	;# 
   647  0016                     	;# 
   648  0017                     	;# 
   649  0018                     	;# 
   650  0019                     	;# 
   651  001A                     	;# 
   652  001B                     	;# 
   653  001B                     	;# 
   654  001C                     	;# 
   655  001D                     	;# 
   656  001E                     	;# 
   657  001F                     	;# 
   658  0081                     	;# 
   659  0085                     	;# 
   660  0086                     	;# 
   661  0087                     	;# 
   662  0088                     	;# 
   663  0089                     	;# 
   664  008C                     	;# 
   665  008D                     	;# 
   666  008E                     	;# 
   667  008F                     	;# 
   668  0090                     	;# 
   669  0091                     	;# 
   670  0092                     	;# 
   671  0093                     	;# 
   672  0093                     	;# 
   673  0093                     	;# 
   674  0094                     	;# 
   675  0095                     	;# 
   676  0096                     	;# 
   677  0097                     	;# 
   678  0098                     	;# 
   679  0099                     	;# 
   680  009A                     	;# 
   681  009B                     	;# 
   682  009C                     	;# 
   683  009D                     	;# 
   684  009E                     	;# 
   685  009F                     	;# 
   686  0105                     	;# 
   687  0107                     	;# 
   688  0108                     	;# 
   689  0109                     	;# 
   690  010C                     	;# 
   691  010C                     	;# 
   692  010D                     	;# 
   693  010E                     	;# 
   694  010F                     	;# 
   695  0185                     	;# 
   696  0187                     	;# 
   697  0188                     	;# 
   698  0189                     	;# 
   699  018C                     	;# 
   700  018D                     	;# 
   701  0000                     	;# 
   702  0001                     	;# 
   703  0002                     	;# 
   704  0003                     	;# 
   705  0004                     	;# 
   706  0005                     	;# 
   707  0006                     	;# 
   708  0007                     	;# 
   709  0008                     	;# 
   710  0009                     	;# 
   711  000A                     	;# 
   712  000B                     	;# 
   713  000C                     	;# 
   714  000D                     	;# 
   715  000E                     	;# 
   716  000E                     	;# 
   717  000F                     	;# 
   718  0010                     	;# 
   719  0011                     	;# 
   720  0012                     	;# 
   721  0013                     	;# 
   722  0014                     	;# 
   723  0015                     	;# 
   724  0015                     	;# 
   725  0016                     	;# 
   726  0017                     	;# 
   727  0018                     	;# 
   728  0019                     	;# 
   729  001A                     	;# 
   730  001B                     	;# 
   731  001B                     	;# 
   732  001C                     	;# 
   733  001D                     	;# 
   734  001E                     	;# 
   735  001F                     	;# 
   736  0081                     	;# 
   737  0085                     	;# 
   738  0086                     	;# 
   739  0087                     	;# 
   740  0088                     	;# 
   741  0089                     	;# 
   742  008C                     	;# 
   743  008D                     	;# 
   744  008E                     	;# 
   745  008F                     	;# 
   746  0090                     	;# 
   747  0091                     	;# 
   748  0092                     	;# 
   749  0093                     	;# 
   750  0093                     	;# 
   751  0093                     	;# 
   752  0094                     	;# 
   753  0095                     	;# 
   754  0096                     	;# 
   755  0097                     	;# 
   756  0098                     	;# 
   757  0099                     	;# 
   758  009A                     	;# 
   759  009B                     	;# 
   760  009C                     	;# 
   761  009D                     	;# 
   762  009E                     	;# 
   763  009F                     	;# 
   764  0105                     	;# 
   765  0107                     	;# 
   766  0108                     	;# 
   767  0109                     	;# 
   768  010C                     	;# 
   769  010C                     	;# 
   770  010D                     	;# 
   771  010E                     	;# 
   772  010F                     	;# 
   773  0185                     	;# 
   774  0187                     	;# 
   775  0188                     	;# 
   776  0189                     	;# 
   777  018C                     	;# 
   778  018D                     	;# 
   779  0000                     	;# 
   780  0001                     	;# 
   781  0002                     	;# 
   782  0003                     	;# 
   783  0004                     	;# 
   784  0005                     	;# 
   785  0006                     	;# 
   786  0007                     	;# 
   787  0008                     	;# 
   788  0009                     	;# 
   789  000A                     	;# 
   790  000B                     	;# 
   791  000C                     	;# 
   792  000D                     	;# 
   793  000E                     	;# 
   794  000E                     	;# 
   795  000F                     	;# 
   796  0010                     	;# 
   797  0011                     	;# 
   798  0012                     	;# 
   799  0013                     	;# 
   800  0014                     	;# 
   801  0015                     	;# 
   802  0015                     	;# 
   803  0016                     	;# 
   804  0017                     	;# 
   805  0018                     	;# 
   806  0019                     	;# 
   807  001A                     	;# 
   808  001B                     	;# 
   809  001B                     	;# 
   810  001C                     	;# 
   811  001D                     	;# 
   812  001E                     	;# 
   813  001F                     	;# 
   814  0081                     	;# 
   815  0085                     	;# 
   816  0086                     	;# 
   817  0087                     	;# 
   818  0088                     	;# 
   819  0089                     	;# 
   820  008C                     	;# 
   821  008D                     	;# 
   822  008E                     	;# 
   823  008F                     	;# 
   824  0090                     	;# 
   825  0091                     	;# 
   826  0092                     	;# 
   827  0093                     	;# 
   828  0093                     	;# 
   829  0093                     	;# 
   830  0094                     	;# 
   831  0095                     	;# 
   832  0096                     	;# 
   833  0097                     	;# 
   834  0098                     	;# 
   835  0099                     	;# 
   836  009A                     	;# 
   837  009B                     	;# 
   838  009C                     	;# 
   839  009D                     	;# 
   840  009E                     	;# 
   841  009F                     	;# 
   842  0105                     	;# 
   843  0107                     	;# 
   844  0108                     	;# 
   845  0109                     	;# 
   846  010C                     	;# 
   847  010C                     	;# 
   848  010D                     	;# 
   849  010E                     	;# 
   850  010F                     	;# 
   851  0185                     	;# 
   852  0187                     	;# 
   853  0188                     	;# 
   854  0189                     	;# 
   855  018C                     	;# 
   856  018D                     	;# 
   857  0000                     	;# 
   858  0001                     	;# 
   859  0002                     	;# 
   860  0003                     	;# 
   861  0004                     	;# 
   862  0005                     	;# 
   863  0006                     	;# 
   864  0007                     	;# 
   865  0008                     	;# 
   866  0009                     	;# 
   867  000A                     	;# 
   868  000B                     	;# 
   869  000C                     	;# 
   870  000D                     	;# 
   871  000E                     	;# 
   872  000E                     	;# 
   873  000F                     	;# 
   874  0010                     	;# 
   875  0011                     	;# 
   876  0012                     	;# 
   877  0013                     	;# 
   878  0014                     	;# 
   879  0015                     	;# 
   880  0015                     	;# 
   881  0016                     	;# 
   882  0017                     	;# 
   883  0018                     	;# 
   884  0019                     	;# 
   885  001A                     	;# 
   886  001B                     	;# 
   887  001B                     	;# 
   888  001C                     	;# 
   889  001D                     	;# 
   890  001E                     	;# 
   891  001F                     	;# 
   892  0081                     	;# 
   893  0085                     	;# 
   894  0086                     	;# 
   895  0087                     	;# 
   896  0088                     	;# 
   897  0089                     	;# 
   898  008C                     	;# 
   899  008D                     	;# 
   900  008E                     	;# 
   901  008F                     	;# 
   902  0090                     	;# 
   903  0091                     	;# 
   904  0092                     	;# 
   905  0093                     	;# 
   906  0093                     	;# 
   907  0093                     	;# 
   908  0094                     	;# 
   909  0095                     	;# 
   910  0096                     	;# 
   911  0097                     	;# 
   912  0098                     	;# 
   913  0099                     	;# 
   914  009A                     	;# 
   915  009B                     	;# 
   916  009C                     	;# 
   917  009D                     	;# 
   918  009E                     	;# 
   919  009F                     	;# 
   920  0105                     	;# 
   921  0107                     	;# 
   922  0108                     	;# 
   923  0109                     	;# 
   924  010C                     	;# 
   925  010C                     	;# 
   926  010D                     	;# 
   927  010E                     	;# 
   928  010F                     	;# 
   929  0185                     	;# 
   930  0187                     	;# 
   931  0188                     	;# 
   932  0189                     	;# 
   933  018C                     	;# 
   934  018D                     	;# 
   935  0000                     	;# 
   936  0001                     	;# 
   937  0002                     	;# 
   938  0003                     	;# 
   939  0004                     	;# 
   940  0005                     	;# 
   941  0006                     	;# 
   942  0007                     	;# 
   943  0008                     	;# 
   944  0009                     	;# 
   945  000A                     	;# 
   946  000B                     	;# 
   947  000C                     	;# 
   948  000D                     	;# 
   949  000E                     	;# 
   950  000E                     	;# 
   951  000F                     	;# 
   952  0010                     	;# 
   953  0011                     	;# 
   954  0012                     	;# 
   955  0013                     	;# 
   956  0014                     	;# 
   957  0015                     	;# 
   958  0015                     	;# 
   959  0016                     	;# 
   960  0017                     	;# 
   961  0018                     	;# 
   962  0019                     	;# 
   963  001A                     	;# 
   964  001B                     	;# 
   965  001B                     	;# 
   966  001C                     	;# 
   967  001D                     	;# 
   968  001E                     	;# 
   969  001F                     	;# 
   970  0081                     	;# 
   971  0085                     	;# 
   972  0086                     	;# 
   973  0087                     	;# 
   974  0088                     	;# 
   975  0089                     	;# 
   976  008C                     	;# 
   977  008D                     	;# 
   978  008E                     	;# 
   979  008F                     	;# 
   980  0090                     	;# 
   981  0091                     	;# 
   982  0092                     	;# 
   983  0093                     	;# 
   984  0093                     	;# 
   985  0093                     	;# 
   986  0094                     	;# 
   987  0095                     	;# 
   988  0096                     	;# 
   989  0097                     	;# 
   990  0098                     	;# 
   991  0099                     	;# 
   992  009A                     	;# 
   993  009B                     	;# 
   994  009C                     	;# 
   995  009D                     	;# 
   996  009E                     	;# 
   997  009F                     	;# 
   998  0105                     	;# 
   999  0107                     	;# 
  1000  0108                     	;# 
  1001  0109                     	;# 
  1002  010C                     	;# 
  1003  010C                     	;# 
  1004  010D                     	;# 
  1005  010E                     	;# 
  1006  010F                     	;# 
  1007  0185                     	;# 
  1008  0187                     	;# 
  1009  0188                     	;# 
  1010  0189                     	;# 
  1011  018C                     	;# 
  1012  018D                     	;# 
  1013  0000                     	;# 
  1014  0001                     	;# 
  1015  0002                     	;# 
  1016  0003                     	;# 
  1017  0004                     	;# 
  1018  0005                     	;# 
  1019  0006                     	;# 
  1020  0007                     	;# 
  1021  0008                     	;# 
  1022  0009                     	;# 
  1023  000A                     	;# 
  1024  000B                     	;# 
  1025  000C                     	;# 
  1026  000D                     	;# 
  1027  000E                     	;# 
  1028  000E                     	;# 
  1029  000F                     	;# 
  1030  0010                     	;# 
  1031  0011                     	;# 
  1032  0012                     	;# 
  1033  0013                     	;# 
  1034  0014                     	;# 
  1035  0015                     	;# 
  1036  0015                     	;# 
  1037  0016                     	;# 
  1038  0017                     	;# 
  1039  0018                     	;# 
  1040  0019                     	;# 
  1041  001A                     	;# 
  1042  001B                     	;# 
  1043  001B                     	;# 
  1044  001C                     	;# 
  1045  001D                     	;# 
  1046  001E                     	;# 
  1047  001F                     	;# 
  1048  0081                     	;# 
  1049  0085                     	;# 
  1050  0086                     	;# 
  1051  0087                     	;# 
  1052  0088                     	;# 
  1053  0089                     	;# 
  1054  008C                     	;# 
  1055  008D                     	;# 
  1056  008E                     	;# 
  1057  008F                     	;# 
  1058  0090                     	;# 
  1059  0091                     	;# 
  1060  0092                     	;# 
  1061  0093                     	;# 
  1062  0093                     	;# 
  1063  0093                     	;# 
  1064  0094                     	;# 
  1065  0095                     	;# 
  1066  0096                     	;# 
  1067  0097                     	;# 
  1068  0098                     	;# 
  1069  0099                     	;# 
  1070  009A                     	;# 
  1071  009B                     	;# 
  1072  009C                     	;# 
  1073  009D                     	;# 
  1074  009E                     	;# 
  1075  009F                     	;# 
  1076  0105                     	;# 
  1077  0107                     	;# 
  1078  0108                     	;# 
  1079  0109                     	;# 
  1080  010C                     	;# 
  1081  010C                     	;# 
  1082  010D                     	;# 
  1083  010E                     	;# 
  1084  010F                     	;# 
  1085  0185                     	;# 
  1086  0187                     	;# 
  1087  0188                     	;# 
  1088  0189                     	;# 
  1089  018C                     	;# 
  1090  018D                     	;# 
  1091  0000                     	;# 
  1092  0001                     	;# 
  1093  0002                     	;# 
  1094  0003                     	;# 
  1095  0004                     	;# 
  1096  0005                     	;# 
  1097  0006                     	;# 
  1098  0007                     	;# 
  1099  0008                     	;# 
  1100  0009                     	;# 
  1101  000A                     	;# 
  1102  000B                     	;# 
  1103  000C                     	;# 
  1104  000D                     	;# 
  1105  000E                     	;# 
  1106  000E                     	;# 
  1107  000F                     	;# 
  1108  0010                     	;# 
  1109  0011                     	;# 
  1110  0012                     	;# 
  1111  0013                     	;# 
  1112  0014                     	;# 
  1113  0015                     	;# 
  1114  0015                     	;# 
  1115  0016                     	;# 
  1116  0017                     	;# 
  1117  0018                     	;# 
  1118  0019                     	;# 
  1119  001A                     	;# 
  1120  001B                     	;# 
  1121  001B                     	;# 
  1122  001C                     	;# 
  1123  001D                     	;# 
  1124  001E                     	;# 
  1125  001F                     	;# 
  1126  0081                     	;# 
  1127  0085                     	;# 
  1128  0086                     	;# 
  1129  0087                     	;# 
  1130  0088                     	;# 
  1131  0089                     	;# 
  1132  008C                     	;# 
  1133  008D                     	;# 
  1134  008E                     	;# 
  1135  008F                     	;# 
  1136  0090                     	;# 
  1137  0091                     	;# 
  1138  0092                     	;# 
  1139  0093                     	;# 
  1140  0093                     	;# 
  1141  0093                     	;# 
  1142  0094                     	;# 
  1143  0095                     	;# 
  1144  0096                     	;# 
  1145  0097                     	;# 
  1146  0098                     	;# 
  1147  0099                     	;# 
  1148  009A                     	;# 
  1149  009B                     	;# 
  1150  009C                     	;# 
  1151  009D                     	;# 
  1152  009E                     	;# 
  1153  009F                     	;# 
  1154  0105                     	;# 
  1155  0107                     	;# 
  1156  0108                     	;# 
  1157  0109                     	;# 
  1158  010C                     	;# 
  1159  010C                     	;# 
  1160  010D                     	;# 
  1161  010E                     	;# 
  1162  010F                     	;# 
  1163  0185                     	;# 
  1164  0187                     	;# 
  1165  0188                     	;# 
  1166  0189                     	;# 
  1167  018C                     	;# 
  1168  018D                     	;# 
  1169                           
  1170                           	psect	idataBANK0
  1171  0127                     __pidataBANK0:	
  1172                           
  1173                           ;initializer for _BTH_reboot
  1174  0127  3472               	retlw	114
  1175  0128  342C               	retlw	44
  1176  0129  3431               	retlw	49
  1177  012A  340D               	retlw	13
  1178  012B  3400               	retlw	0
  1179                           
  1180                           ;initializer for _CMD_mode
  1181  012C  3424               	retlw	36
  1182  012D  3424               	retlw	36
  1183  012E  3424               	retlw	36
  1184  012F  340D               	retlw	13
  1185  0130  3400               	retlw	0
  1186                           
  1187                           ;initializer for _shift
  1188  0131  3401               	retlw	1
  1189                           
  1190                           	psect	idataBANK1
  1191  02BF                     __pidataBANK1:	
  1192                           
  1193                           ;initializer for _device_name
  1194  02BF  3453               	retlw	83
  1195  02C0  344E               	retlw	78
  1196  02C1  342C               	retlw	44
  1197  02C2  3459               	retlw	89
  1198  02C3  3461               	retlw	97
  1199  02C4  346C               	retlw	108
  1200  02C5  3461               	retlw	97
  1201  02C6  3420               	retlw	32
  1202  02C7  3444               	retlw	68
  1203  02C8  3465               	retlw	101
  1204  02C9  3476               	retlw	118
  1205  02CA  3469               	retlw	105
  1206  02CB  3463               	retlw	99
  1207  02CC  3465               	retlw	101
  1208  02CD  340D               	retlw	13
  1209  02CE  3400               	retlw	0
  1210                           
  1211                           ;initializer for _student_Number
  1212  02CF  3432               	retlw	50
  1213  02D0  3430               	retlw	48
  1214  02D1  3431               	retlw	49
  1215  02D2  3431               	retlw	49
  1216  02D3  3434               	retlw	52
  1217  02D4  3478               	retlw	120
  1218  02D5  3478               	retlw	120
  1219  02D6  3478               	retlw	120
  1220  02D7  3478               	retlw	120
  1221  02D8  3400               	retlw	0
  1222                           
  1223                           ;initializer for _segment_Array
  1224  02D9  343F               	retlw	63
  1225  02DA  3406               	retlw	6
  1226  02DB  345B               	retlw	91
  1227  02DC  344F               	retlw	79
  1228  02DD  3466               	retlw	102
  1229  02DE  346D               	retlw	109
  1230  02DF  347D               	retlw	125
  1231  02E0  3407               	retlw	7
  1232  02E1  347F               	retlw	127
  1233  02E2  346F               	retlw	111
  1234                           
  1235                           ;initializer for _Admin_UserName
  1236  02E3  3459               	retlw	89
  1237  02E4  3461               	retlw	97
  1238  02E5  346C               	retlw	108
  1239  02E6  3461               	retlw	97
  1240  02E7  3454               	retlw	84
  1241  02E8  3465               	retlw	101
  1242  02E9  3463               	retlw	99
  1243  02EA  3468               	retlw	104
  1244  02EB  3400               	retlw	0
  1245                           
  1246                           ;initializer for _student_Name
  1247  02EC  3459               	retlw	89
  1248  02ED  3461               	retlw	97
  1249  02EE  346C               	retlw	108
  1250  02EF  3461               	retlw	97
  1251  02F0  3454               	retlw	84
  1252  02F1  3465               	retlw	101
  1253  02F2  3463               	retlw	99
  1254  02F3  3468               	retlw	104
  1255  02F4  3400               	retlw	0
  1256                           
  1257                           ;initializer for _Admin_PassWord
  1258  02F5  3430               	retlw	48
  1259  02F6  3431               	retlw	49
  1260  02F7  3432               	retlw	50
  1261  02F8  3433               	retlw	51
  1262  02F9  3434               	retlw	52
  1263  02FA  3435               	retlw	53
  1264  02FB  3400               	retlw	0
  1265                           
  1266                           ;initializer for _reset_To_Factory
  1267  02FC  3453               	retlw	83
  1268  02FD  3446               	retlw	70
  1269  02FE  342C               	retlw	44
  1270  02FF  3431               	retlw	49
  1271  0300  340D               	retlw	13
  1272  0301  3400               	retlw	0
  1273                           
  1274                           	psect	strings
  1275  0015                     __pstrings:	
  1276  0015                     stringtab:	
  1277  0015                     __stringtab:	
  1278                           
  1279                           ;	String table - string pointers are 1 byte each
  1280  0015  1BFF               	btfsc	btemp+1,7
  1281  0016  281F               	ljmp	stringcode
  1282  0017  1383               	bcf	3,7
  1283  0018  187F               	btfsc	btemp+1,0
  1284  0019  1783               	bsf	3,7
  1285  001A  0800               	movf	0,w
  1286  001B  0A84               	incf	4,f
  1287  001C  1903               	skipnz
  1288  001D  0AFF               	incf	btemp+1,f
  1289  001E  0008               	return
  1290  001F                     stringcode:	
  1291  001F                     stringdir:	
  1292  001F  3000               	movlw	high stringdir
  1293  0020  008A               	movwf	10
  1294  0021  0804               	movf	4,w
  1295  0022  0A84               	incf	4,f
  1296  0023  0782               	addwf	2,f
  1297  0024                     __stringbase:	
  1298  0024  3400               	retlw	0
  1299  0025                     __end_of__stringtab:	
  1300  0025                     _dpowers:	
  1301  0025  3401               	retlw	1
  1302  0026  3400               	retlw	0
  1303  0027  3400               	retlw	0
  1304  0028  3400               	retlw	0
  1305  0029  340A               	retlw	10
  1306  002A  3400               	retlw	0
  1307  002B  3400               	retlw	0
  1308  002C  3400               	retlw	0
  1309  002D  3464               	retlw	100
  1310  002E  3400               	retlw	0
  1311  002F  3400               	retlw	0
  1312  0030  3400               	retlw	0
  1313  0031  34E8               	retlw	232
  1314  0032  3403               	retlw	3
  1315  0033  3400               	retlw	0
  1316  0034  3400               	retlw	0
  1317  0035  3410               	retlw	16
  1318  0036  3427               	retlw	39
  1319  0037  3400               	retlw	0
  1320  0038  3400               	retlw	0
  1321  0039  34A0               	retlw	160
  1322  003A  3486               	retlw	134
  1323  003B  3401               	retlw	1
  1324  003C  3400               	retlw	0
  1325  003D  3440               	retlw	64
  1326  003E  3442               	retlw	66
  1327  003F  340F               	retlw	15
  1328  0040  3400               	retlw	0
  1329  0041  3480               	retlw	128
  1330  0042  3496               	retlw	150
  1331  0043  3498               	retlw	152
  1332  0044  3400               	retlw	0
  1333  0045  3400               	retlw	0
  1334  0046  34E1               	retlw	225
  1335  0047  34F5               	retlw	245
  1336  0048  3405               	retlw	5
  1337  0049  3400               	retlw	0
  1338  004A  34CA               	retlw	202
  1339  004B  349A               	retlw	154
  1340  004C  343B               	retlw	59
  1341  004D                     __end_of_dpowers:	
  1342  004D                     __powers_:	
  1343  004D  3400               	retlw	0
  1344  004E  3480               	retlw	128
  1345  004F  343F               	retlw	63
  1346  0050  3400               	retlw	0
  1347  0051  3420               	retlw	32
  1348  0052  3441               	retlw	65
  1349  0053  3400               	retlw	0
  1350  0054  34C8               	retlw	200
  1351  0055  3442               	retlw	66
  1352  0056  3400               	retlw	0
  1353  0057  347A               	retlw	122
  1354  0058  3444               	retlw	68
  1355  0059  3440               	retlw	64
  1356  005A  341C               	retlw	28
  1357  005B  3446               	retlw	70
  1358  005C  3450               	retlw	80
  1359  005D  34C3               	retlw	195
  1360  005E  3447               	retlw	71
  1361  005F  3424               	retlw	36
  1362  0060  3474               	retlw	116
  1363  0061  3449               	retlw	73
  1364  0062  3497               	retlw	151
  1365  0063  3418               	retlw	24
  1366  0064  344B               	retlw	75
  1367  0065  34BC               	retlw	188
  1368  0066  34BE               	retlw	190
  1369  0067  344C               	retlw	76
  1370  0068  346B               	retlw	107
  1371  0069  346E               	retlw	110
  1372  006A  344E               	retlw	78
  1373  006B  3403               	retlw	3
  1374  006C  3415               	retlw	21
  1375  006D  3450               	retlw	80
  1376  006E  3479               	retlw	121
  1377  006F  34AD               	retlw	173
  1378  0070  3460               	retlw	96
  1379  0071  34F3               	retlw	243
  1380  0072  3449               	retlw	73
  1381  0073  3471               	retlw	113
  1382  0074                     __end_of__powers_:	
  1383  0074                     __npowers_:	
  1384  0074  3400               	retlw	0
  1385  0075  3480               	retlw	128
  1386  0076  343F               	retlw	63
  1387  0077  34CD               	retlw	205
  1388  0078  34CC               	retlw	204
  1389  0079  343D               	retlw	61
  1390  007A  34D7               	retlw	215
  1391  007B  3423               	retlw	35
  1392  007C  343C               	retlw	60
  1393  007D  3412               	retlw	18
  1394  007E  3483               	retlw	131
  1395  007F  343A               	retlw	58
  1396  0080  34B7               	retlw	183
  1397  0081  34D1               	retlw	209
  1398  0082  3438               	retlw	56
  1399  0083  34C6               	retlw	198
  1400  0084  3427               	retlw	39
  1401  0085  3437               	retlw	55
  1402  0086  3438               	retlw	56
  1403  0087  3486               	retlw	134
  1404  0088  3435               	retlw	53
  1405  0089  34C0               	retlw	192
  1406  008A  34D6               	retlw	214
  1407  008B  3433               	retlw	51
  1408  008C  34CC               	retlw	204
  1409  008D  342B               	retlw	43
  1410  008E  3432               	retlw	50
  1411  008F  3470               	retlw	112
  1412  0090  3489               	retlw	137
  1413  0091  3430               	retlw	48
  1414  0092  34E7               	retlw	231
  1415  0093  34DB               	retlw	219
  1416  0094  342E               	retlw	46
  1417  0095  34E5               	retlw	229
  1418  0096  343C               	retlw	60
  1419  0097  341E               	retlw	30
  1420  0098  3442               	retlw	66
  1421  0099  34A2               	retlw	162
  1422  009A  340D               	retlw	13
  1423  009B                     __end_of__npowers_:	
  1424  0001                     _TMR0	set	1
  1425  001A                     _RCREG	set	26
  1426  0019                     _TXREG	set	25
  1427  0018                     _RCSTAbits	set	24
  1428  0014                     _SSPCONbits	set	20
  1429  0013                     _SSPBUF	set	19
  1430  0005                     _PORTAbits	set	5
  1431  0012                     _T2CONbits	set	18
  1432  0015                     _CCPR1L	set	21
  1433  0017                     _CCP1CONbits	set	23
  1434  000B                     _INTCONbits	set	11
  1435  001E                     _ADRESH	set	30
  1436  001F                     _ADCON0bits	set	31
  1437  0009                     _PORTE	set	9
  1438  0007                     _PORTC	set	7
  1439  0006                     _PORTB	set	6
  1440  0005                     _PORTA	set	5
  1441  0008                     _PORTD	set	8
  1442  0006                     _PORTBbits	set	6
  1443  000C                     _PIR1bits	set	12
  1444  00F9                     _GO_DONE	set	249
  1445  0081                     _OPTION_REGbits	set	129
  1446  0099                     _SPBRG	set	153
  1447  0094                     _SSPSTATbits	set	148
  1448  0092                     _PR2	set	146
  1449  009E                     _ADRESL	set	158
  1450  009F                     _ADCON1bits	set	159
  1451  0090                     _OSCTUNE	set	144
  1452  008F                     _OSCCON	set	143
  1453  0085                     _TRISAbits	set	133
  1454  0087                     _TRISCbits	set	135
  1455  0086                     _TRISBbits	set	134
  1456  0086                     _TRISB	set	134
  1457  0088                     _TRISD	set	136
  1458  0098                     _TXSTAbits	set	152
  1459  010C                     _EEDATA	set	268
  1460  010D                     _EEADR	set	269
  1461  0108                     _CM2CON0bits	set	264
  1462  018D                     _EECON2	set	397
  1463  018C                     _EECON1bits	set	396
  1464  0187                     _BAUDCTLbits	set	391
  1465  0188                     _ANSELbits	set	392
  1466  0189                     _ANSELH	set	393
  1467  009B                     STR_3:	
  1468  009B  3454               	retlw	84	;'T'
  1469  009C  3465               	retlw	101	;'e'
  1470  009D  346D               	retlw	109	;'m'
  1471  009E  3470               	retlw	112	;'p'
  1472  009F  3465               	retlw	101	;'e'
  1473  00A0  3472               	retlw	114	;'r'
  1474  00A1  3461               	retlw	97	;'a'
  1475  00A2  3474               	retlw	116	;'t'
  1476  00A3  3475               	retlw	117	;'u'
  1477  00A4  3472               	retlw	114	;'r'
  1478  00A5  3465               	retlw	101	;'e'
  1479  00A6  343A               	retlw	58	;':'
  1480  00A7  3400               	retlw	0
  1481  00A8                     STR_1:	
  1482  00A8  3425               	retlw	37	;'%'
  1483  00A9  342E               	retlw	46	;'.'
  1484  00AA  3432               	retlw	50	;'2'
  1485  00AB  3466               	retlw	102	;'f'
  1486  00AC  3400               	retlw	0
  1487  00AD                     STR_4:	
  1488  00AD  3425               	retlw	37	;'%'
  1489  00AE  3434               	retlw	52	;'4'
  1490  00AF  3464               	retlw	100	;'d'
  1491  00B0  3400               	retlw	0
  1492                           
  1493                           ; #config settings
  1494  0000                     
  1495                           	psect	cinit
  1496  07D0                     start_initialization:	
  1497  07D0                     __initialization:	
  1498                           
  1499                           ; Initialize objects allocated to BANK1
  1500  07D0  1383               	bcf	3,7	;select IRP bank0
  1501  07D1  30E3               	movlw	low (__pdataBANK1+67)
  1502  07D2  00FD               	movwf	btemp+-1
  1503  07D3  3002               	movlw	high __pidataBANK1
  1504  07D4  00FE               	movwf	btemp
  1505  07D5  30BF               	movlw	low __pidataBANK1
  1506  07D6  00FF               	movwf	btemp+1
  1507  07D7  30A0               	movlw	low __pdataBANK1
  1508  07D8  0084               	movwf	4
  1509  07D9  120A  118A  2151  120A  118A  	fcall	init_ram0
  1510                           
  1511                           ; Initialize objects allocated to BANK0
  1512  07DE  306C               	movlw	low (__pdataBANK0+11)
  1513  07DF  00FD               	movwf	btemp+-1
  1514  07E0  3001               	movlw	high __pidataBANK0
  1515  07E1  00FE               	movwf	btemp
  1516  07E2  3027               	movlw	low __pidataBANK0
  1517  07E3  00FF               	movwf	btemp+1
  1518  07E4  3061               	movlw	low __pdataBANK0
  1519  07E5  0084               	movwf	4
  1520  07E6  120A  118A  2151   	fcall	init_ram0
  1521                           
  1522                           ; Clear objects allocated to BANK0
  1523  07E9  01D4               	clrf	__pbssBANK0& (0+127)
  1524  07EA  01D5               	clrf	(__pbssBANK0+1)& (0+127)
  1525  07EB  01D6               	clrf	(__pbssBANK0+2)& (0+127)
  1526  07EC  01D7               	clrf	(__pbssBANK0+3)& (0+127)
  1527  07ED  01D8               	clrf	(__pbssBANK0+4)& (0+127)
  1528  07EE  01D9               	clrf	(__pbssBANK0+5)& (0+127)
  1529  07EF  01DA               	clrf	(__pbssBANK0+6)& (0+127)
  1530  07F0  01DB               	clrf	(__pbssBANK0+7)& (0+127)
  1531  07F1  01DC               	clrf	(__pbssBANK0+8)& (0+127)
  1532  07F2  01DD               	clrf	(__pbssBANK0+9)& (0+127)
  1533  07F3  01DE               	clrf	(__pbssBANK0+10)& (0+127)
  1534  07F4  01DF               	clrf	(__pbssBANK0+11)& (0+127)
  1535  07F5  01E0               	clrf	(__pbssBANK0+12)& (0+127)
  1536                           
  1537                           ; Clear objects allocated to COMMON
  1538  07F6  01F1               	clrf	__pbssCOMMON& (0+127)
  1539  07F7  01F2               	clrf	(__pbssCOMMON+1)& (0+127)
  1540  07F8  01F3               	clrf	(__pbssCOMMON+2)& (0+127)
  1541  07F9  01F4               	clrf	(__pbssCOMMON+3)& (0+127)
  1542  07FA  01F5               	clrf	(__pbssCOMMON+4)& (0+127)
  1543  07FB  01F6               	clrf	(__pbssCOMMON+5)& (0+127)
  1544  07FC                     end_of_initialization:	
  1545                           ;End of C runtime variable initialization code
  1546                           
  1547  07FC                     __end_of__initialization:	
  1548  07FC  0183               	clrf	3
  1549  07FD  120A  118A  2C9B   	ljmp	_main	;jump to C main() function
  1550                           
  1551                           	psect	bssCOMMON
  1552  0071                     __pbssCOMMON:	
  1553  0071                     _rawData:	
  1554  0071                     	ds	2
  1555  0073                     _segment_Variable:	
  1556  0073                     	ds	2
  1557  0075                     _data_TransferComplete:	
  1558  0075                     	ds	1
  1559  0076                     _dataBuffer:	
  1560  0076                     	ds	1
  1561                           
  1562                           	psect	bssBANK0
  1563  0054                     __pbssBANK0:	
  1564  0054                     _temperature:	
  1565  0054                     	ds	3
  1566  0057                     _adc:	
  1567  0057                     	ds	2
  1568  0059                     _g_state:	
  1569  0059                     	ds	1
  1570  005A                     _increaseTime_Enabled:	
  1571  005A                     	ds	1
  1572  005B                     _shitf_Speed:	
  1573  005B                     	ds	1
  1574  005C                     _sTemperature:	
  1575  005C                     	ds	5
  1576                           
  1577                           	psect	dataBANK0
  1578  0061                     __pdataBANK0:	
  1579  0061                     _BTH_reboot:	
  1580  0061                     	ds	5
  1581  0066                     _CMD_mode:	
  1582  0066                     	ds	5
  1583  006B                     _shift:	
  1584  006B                     	ds	1
  1585                           
  1586                           	psect	dataBANK1
  1587  00A0                     __pdataBANK1:	
  1588  00A0                     _device_name:	
  1589  00A0                     	ds	16
  1590  00B0                     _student_Number:	
  1591  00B0                     	ds	10
  1592  00BA                     _segment_Array:	
  1593  00BA                     	ds	10
  1594  00C4                     _Admin_UserName:	
  1595  00C4                     	ds	9
  1596  00CD                     _student_Name:	
  1597  00CD                     	ds	9
  1598  00D6                     _Admin_PassWord:	
  1599  00D6                     	ds	7
  1600  00DD                     _reset_To_Factory:	
  1601  00DD                     	ds	6
  1602                           
  1603                           	psect	inittext
  1604  014D                     init_fetch0:	
  1605                           ;	Called with low address in FSR and high address in W
  1606                           
  1607  014D  087E               	movf	126,w
  1608  014E  008A               	movwf	10
  1609  014F  087F               	movf	127,w
  1610  0150  0082               	movwf	2
  1611  0151                     init_ram0:	
  1612                           ;Called with:
  1613                           ;	high address of idata address in btemp 
  1614                           ;	low address of idata address in btemp+1 
  1615                           ;	low address of data in FSR
  1616                           ;	high address + 1 of data in btemp-1
  1617                           
  1618  0151  214D  120A  118A   	fcall	init_fetch0
  1619  0154  0080               	movwf	0
  1620  0155  0A84               	incf	4,f
  1621  0156  0804               	movf	4,w
  1622  0157  067D               	xorwf	125,w
  1623  0158  1903               	btfsc	3,2
  1624  0159  3400               	retlw	0
  1625  015A  0AFF               	incf	127,f
  1626  015B  1903               	btfsc	3,2
  1627  015C  0AFE               	incf	126,f
  1628  015D  2951               	goto	init_ram0
  1629                           
  1630                           	psect	cstackCOMMON
  1631  0077                     __pcstackCOMMON:	
  1632  0077                     ?_system_Initialize:	
  1633  0077                     ?_eeprom_Read:	
  1634                           ; 1 bytes @ 0x0
  1635                           
  1636  0077                     ?_led_Demo:	
  1637                           ; 1 bytes @ 0x0
  1638                           
  1639  0077                     ?_Oscillator_Init:	
  1640                           ; 1 bytes @ 0x0
  1641                           
  1642  0077                     ?_Interrupt_Init:	
  1643                           ; 1 bytes @ 0x0
  1644                           
  1645  0077                     ?_Lcd_Init:	
  1646                           ; 1 bytes @ 0x0
  1647                           
  1648  0077                     ?_ADC_Init:	
  1649                           ; 1 bytes @ 0x0
  1650                           
  1651  0077                     ?_TMR0_Init:	
  1652                           ; 1 bytes @ 0x0
  1653                           
  1654  0077                     ?_SPI_Init:	
  1655                           ; 1 bytes @ 0x0
  1656                           
  1657  0077                     ?_SPI_MasterTransmit:	
  1658                           ; 1 bytes @ 0x0
  1659                           
  1660  0077                     ?_pinManager:	
  1661                           ; 1 bytes @ 0x0
  1662                           
  1663  0077                     ?_Lcd_Port:	
  1664                           ; 1 bytes @ 0x0
  1665                           
  1666  0077                     ?_Lcd_Cmd:	
  1667                           ; 1 bytes @ 0x0
  1668                           
  1669  0077                     ?_ISR:	
  1670                           ; 1 bytes @ 0x0
  1671                           
  1672  0077                     ??_ISR:	
  1673                           ; 1 bytes @ 0x0
  1674                           
  1675  0077                     ?_main:	
  1676                           ; 1 bytes @ 0x0
  1677                           
  1678                           
  1679                           ; 2 bytes @ 0x0
  1680  0077                     	ds	6
  1681                           
  1682                           	psect	cstackBANK0
  1683  0020                     __pcstackBANK0:	
  1684  0020                     ??_Oscillator_Init:	
  1685  0020                     ??_Interrupt_Init:	
  1686                           ; 1 bytes @ 0x0
  1687                           
  1688  0020                     ??_ADC_Init:	
  1689                           ; 1 bytes @ 0x0
  1690                           
  1691  0020                     ??_TMR0_Init:	
  1692                           ; 1 bytes @ 0x0
  1693                           
  1694  0020                     ??_SPI_Init:	
  1695                           ; 1 bytes @ 0x0
  1696                           
  1697  0020                     ??_SPI_MasterTransmit:	
  1698                           ; 1 bytes @ 0x0
  1699                           
  1700  0020                     ??_pinManager:	
  1701                           ; 1 bytes @ 0x0
  1702                           
  1703  0020                     ??_Lcd_Port:	
  1704                           ; 1 bytes @ 0x0
  1705                           
  1706  0020                     ?___ftpack:	
  1707                           ; 1 bytes @ 0x0
  1708                           
  1709  0020                     ?___lmul:	
  1710                           ; 3 bytes @ 0x0
  1711                           
  1712  0020                     Lcd_Port@a:	
  1713                           ; 4 bytes @ 0x0
  1714                           
  1715  0020                     SPI_MasterTransmit@iData:	
  1716                           ; 1 bytes @ 0x0
  1717                           
  1718  0020                     ___ftpack@arg:	
  1719                           ; 1 bytes @ 0x0
  1720                           
  1721  0020                     ___lmul@multiplier:	
  1722                           ; 3 bytes @ 0x0
  1723                           
  1724                           
  1725                           ; 4 bytes @ 0x0
  1726  0020                     	ds	1
  1727  0021                     ?_eeprom_Write:	
  1728  0021                     ??_eeprom_Read:	
  1729                           ; 1 bytes @ 0x1
  1730                           
  1731  0021                     ??_Lcd_Cmd:	
  1732                           ; 1 bytes @ 0x1
  1733                           
  1734  0021                     eeprom_Write@iAddress:	
  1735                           ; 1 bytes @ 0x1
  1736                           
  1737                           
  1738                           ; 1 bytes @ 0x1
  1739  0021                     	ds	1
  1740  0022                     ??_eeprom_Write:	
  1741  0022                     eeprom_Read@iAddress:	
  1742                           ; 1 bytes @ 0x2
  1743                           
  1744                           
  1745                           ; 1 bytes @ 0x2
  1746  0022                     	ds	1
  1747  0023                     Lcd_Cmd@a:	
  1748  0023                     eeprom_Read@dataRead:	
  1749                           ; 1 bytes @ 0x3
  1750                           
  1751  0023                     ___ftpack@exp:	
  1752                           ; 1 bytes @ 0x3
  1753                           
  1754                           
  1755                           ; 1 bytes @ 0x3
  1756  0023                     	ds	1
  1757  0024                     ??_Lcd_Init:	
  1758  0024                     eeprom_Write@iData:	
  1759                           ; 1 bytes @ 0x4
  1760                           
  1761  0024                     ___ftpack@sign:	
  1762                           ; 1 bytes @ 0x4
  1763                           
  1764  0024                     ___lmul@multiplicand:	
  1765                           ; 1 bytes @ 0x4
  1766                           
  1767                           
  1768                           ; 4 bytes @ 0x4
  1769  0024                     	ds	1
  1770  0025                     ??___ftpack:	
  1771                           
  1772                           ; 1 bytes @ 0x5
  1773  0025                     	ds	3
  1774  0028                     ??___lmul:	
  1775  0028                     ?___lbtoft:	
  1776                           ; 1 bytes @ 0x8
  1777                           
  1778                           
  1779                           ; 3 bytes @ 0x8
  1780  0028                     	ds	1
  1781  0029                     ___lmul@product:	
  1782                           
  1783                           ; 4 bytes @ 0x9
  1784  0029                     	ds	2
  1785  002B                     ??___lbtoft:	
  1786                           
  1787                           ; 1 bytes @ 0xB
  1788  002B                     	ds	2
  1789  002D                     ?___lldiv:	
  1790  002D                     ___lldiv@divisor:	
  1791                           ; 4 bytes @ 0xD
  1792                           
  1793                           
  1794                           ; 4 bytes @ 0xD
  1795  002D                     	ds	2
  1796  002F                     ___lbtoft@c:	
  1797                           
  1798                           ; 1 bytes @ 0xF
  1799  002F                     	ds	1
  1800  0030                     ?___ftmul:	
  1801  0030                     ___ftmul@f1:	
  1802                           ; 3 bytes @ 0x10
  1803                           
  1804                           
  1805                           ; 3 bytes @ 0x10
  1806  0030                     	ds	1
  1807  0031                     ___lldiv@dividend:	
  1808                           
  1809                           ; 4 bytes @ 0x11
  1810  0031                     	ds	2
  1811  0033                     ___ftmul@f2:	
  1812                           
  1813                           ; 3 bytes @ 0x13
  1814  0033                     	ds	2
  1815  0035                     ??___lldiv:	
  1816                           
  1817                           ; 1 bytes @ 0x15
  1818  0035                     	ds	1
  1819  0036                     ??___ftmul:	
  1820  0036                     ___lldiv@quotient:	
  1821                           ; 1 bytes @ 0x16
  1822                           
  1823                           
  1824                           ; 4 bytes @ 0x16
  1825  0036                     	ds	4
  1826  003A                     ___ftmul@exp:	
  1827  003A                     ___lldiv@counter:	
  1828                           ; 1 bytes @ 0x1A
  1829                           
  1830                           
  1831                           ; 1 bytes @ 0x1A
  1832  003A                     	ds	1
  1833  003B                     ?_PWM_Init:	
  1834  003B                     ?_PWM_DutyCycle:	
  1835                           ; 1 bytes @ 0x1B
  1836                           
  1837  003B                     ?_UART_Init:	
  1838                           ; 1 bytes @ 0x1B
  1839                           
  1840  003B                     ___ftmul@f3_as_product:	
  1841                           ; 1 bytes @ 0x1B
  1842                           
  1843  003B                     PWM_Init@iFrequency:	
  1844                           ; 3 bytes @ 0x1B
  1845                           
  1846  003B                     PWM_DutyCycle@iDutyCycle:	
  1847                           ; 4 bytes @ 0x1B
  1848                           
  1849  003B                     UART_Init@baudRate:	
  1850                           ; 4 bytes @ 0x1B
  1851                           
  1852                           
  1853                           ; 4 bytes @ 0x1B
  1854  003B                     	ds	3
  1855  003E                     ___ftmul@cntr:	
  1856                           
  1857                           ; 1 bytes @ 0x1E
  1858  003E                     	ds	1
  1859  003F                     ??_PWM_Init:	
  1860  003F                     ??_PWM_DutyCycle:	
  1861                           ; 1 bytes @ 0x1F
  1862                           
  1863  003F                     ??_UART_Init:	
  1864                           ; 1 bytes @ 0x1F
  1865                           
  1866  003F                     ___ftmul@sign:	
  1867                           ; 1 bytes @ 0x1F
  1868                           
  1869                           
  1870                           ; 1 bytes @ 0x1F
  1871  003F                     	ds	1
  1872  0040                     ?___fttol:	
  1873  0040                     ___fttol@f1:	
  1874                           ; 4 bytes @ 0x20
  1875                           
  1876                           
  1877                           ; 3 bytes @ 0x20
  1878  0040                     	ds	3
  1879  0043                     ??_system_Initialize:	
  1880                           
  1881                           ; 1 bytes @ 0x23
  1882  0043                     	ds	1
  1883  0044                     ??___fttol:	
  1884                           
  1885                           ; 1 bytes @ 0x24
  1886  0044                     	ds	4
  1887  0048                     ___fttol@sign1:	
  1888                           
  1889                           ; 1 bytes @ 0x28
  1890  0048                     	ds	1
  1891  0049                     ___fttol@lval:	
  1892                           
  1893                           ; 4 bytes @ 0x29
  1894  0049                     	ds	4
  1895  004D                     ___fttol@exp1:	
  1896                           
  1897                           ; 1 bytes @ 0x2D
  1898  004D                     	ds	1
  1899  004E                     ??_led_Demo:	
  1900                           
  1901                           ; 1 bytes @ 0x2E
  1902  004E                     	ds	4
  1903  0052                     led_Demo@speed:	
  1904                           
  1905                           ; 1 bytes @ 0x32
  1906  0052                     	ds	1
  1907  0053                     ??_main:	
  1908                           
  1909                           ; 1 bytes @ 0x33
  1910  0053                     	ds	1
  1911                           
  1912                           	psect	maintext
  1913  049B                     __pmaintext:	
  1914 ;;
  1915 ;;Main: autosize = 0, tempsize = 1, incstack = 0, save=0
  1916 ;;
  1917 ;; *************** function _main *****************
  1918 ;; Defined at:
  1919 ;;		line 14 in file "main.c"
  1920 ;; Parameters:    Size  Location     Type
  1921 ;;		None
  1922 ;; Auto vars:     Size  Location     Type
  1923 ;;		None
  1924 ;; Return value:  Size  Location     Type
  1925 ;;                  2  116[None  ] int 
  1926 ;; Registers used:
  1927 ;;		wreg, fsr0l, fsr0h, status,2, status,0, pclath, cstack
  1928 ;; Tracked objects:
  1929 ;;		On entry : B00/0
  1930 ;;		On exit  : 0/0
  1931 ;;		Unchanged: 0/0
  1932 ;; Data sizes:     COMMON   BANK0   BANK1   BANK3   BANK2
  1933 ;;      Params:         0       0       0       0       0
  1934 ;;      Locals:         0       0       0       0       0
  1935 ;;      Temps:          0       1       0       0       0
  1936 ;;      Totals:         0       1       0       0       0
  1937 ;;Total ram usage:        1 bytes
  1938 ;; Hardware stack levels required when called:    5
  1939 ;; This function calls:
  1940 ;;		_eeprom_Read
  1941 ;;		_eeprom_Write
  1942 ;;		_led_Demo
  1943 ;;		_system_Initialize
  1944 ;; This function is called by:
  1945 ;;		Startup code after reset
  1946 ;; This function uses a non-reentrant model
  1947 ;;
  1948                           
  1949                           
  1950                           ;psect for function _main
  1951  049B                     _main:	
  1952                           
  1953                           ;main.c: 16: system_Initialize();
  1954                           
  1955                           ;incstack = 0
  1956                           ; Regs used in _main: [wreg-fsr0h+status,2+status,0+pclath+cstack]
  1957  049B  120A  118A  238C  120A  118A  	fcall	_system_Initialize
  1958                           
  1959                           ;main.c: 17: eeprom_Write(0xfe, 0x01);
  1960  04A0  1283               	bcf	3,5	;RP0=0, select bank0
  1961  04A1  1303               	bcf	3,6	;RP1=0, select bank0
  1962  04A2  01A1               	clrf	eeprom_Write@iAddress
  1963  04A3  0AA1               	incf	eeprom_Write@iAddress,f
  1964  04A4  30FE               	movlw	254
  1965  04A5  120A  118A  2302  120A  118A  	fcall	_eeprom_Write
  1966                           
  1967                           ;main.c: 18: shitf_Speed = eeprom_Read(0x01);
  1968  04AA  3001               	movlw	1
  1969  04AB  120A  118A  21E9  120A  118A  	fcall	_eeprom_Read
  1970  04B0  1283               	bcf	3,5	;RP0=0, select bank0
  1971  04B1  1303               	bcf	3,6	;RP1=0, select bank0
  1972  04B2  00D3               	movwf	??_main
  1973  04B3  0853               	movf	??_main,w
  1974  04B4  00DB               	movwf	_shitf_Speed
  1975                           
  1976                           ;main.c: 19: if(eeprom_Read(0x05) == 0xff || eeprom_Read(0x05) == 0x00){
  1977  04B5  3005               	movlw	5
  1978  04B6  120A  118A  21E9  120A  118A  	fcall	_eeprom_Read
  1979  04BB  3AFF               	xorlw	255
  1980  04BC  1903               	skipnz
  1981  04BD  2CC7               	goto	l3552
  1982  04BE  3005               	movlw	5
  1983  04BF  120A  118A  21E9  120A  118A  	fcall	_eeprom_Read
  1984  04C4  3A00               	xorlw	0
  1985  04C5  1D03               	skipz
  1986  04C6  2CC9               	goto	l3554
  1987  04C7                     l3552:	
  1988                           
  1989                           ;main.c: 20: PORTD = 0x01;
  1990  04C7  3001               	movlw	1
  1991  04C8  2CCF               	goto	L1
  1992  04C9                     l3554:	
  1993                           ;main.c: 22: }else{
  1994                           
  1995                           
  1996                           ;main.c: 23: PORTD = eeprom_Read(0x05);
  1997  04C9  3005               	movlw	5
  1998  04CA  120A  118A  21E9  120A  118A  	fcall	_eeprom_Read
  1999  04CF                     L1:	
  2000  04CF  1283               	bcf	3,5	;RP0=0, select bank0
  2001  04D0  1303               	bcf	3,6	;RP1=0, select bank0
  2002  04D1  0088               	movwf	8	;volatile
  2003                           
  2004                           ;main.c: 27: switch (g_state) {
  2005                           
  2006                           ;main.c: 25: }
  2007                           ;main.c: 26: while (1) {
  2008  04D2  2CEA               	goto	l3566
  2009  04D3                     l3556:	
  2010                           ;main.c: 29: case ASSIGNMENT_1:
  2011                           
  2012                           
  2013                           ;main.c: 30: led_Demo(shitf_Speed);
  2014  04D3  085B               	movf	_shitf_Speed,w
  2015  04D4  120A  118A  2666  120A  118A  	fcall	_led_Demo
  2016                           
  2017                           ;main.c: 31: break;
  2018  04D9  2CEA               	goto	l3566
  2019  04DA                     l3558:	
  2020                           ;main.c: 33: case ASSIGNMENT_2:
  2021                           
  2022                           
  2023                           ;main.c: 35: eeprom_Write(0x00, 0x02);
  2024  04DA  3002               	movlw	2
  2025  04DB  2CDF               	goto	L2
  2026  04DC                     l3560:	
  2027                           ;main.c: 37: case ASSIGNMENT_3:
  2028                           
  2029                           ;main.c: 36: break;
  2030                           
  2031                           
  2032                           ;main.c: 39: eeprom_Write(0x00, 0x03);
  2033  04DC  3003               	movlw	3
  2034  04DD  2CDF               	goto	L2
  2035  04DE                     l3562:	
  2036                           ;main.c: 42: case ASSIGNMENT_4:
  2037                           
  2038                           ;main.c: 40: break;
  2039                           
  2040                           
  2041                           ;main.c: 44: eeprom_Write(0x00, 0x04);
  2042  04DE  3004               	movlw	4
  2043  04DF                     L2:	
  2044  04DF  1283               	bcf	3,5	;RP0=0, select bank0
  2045  04E0  1303               	bcf	3,6	;RP1=0, select bank0
  2046  04E1  00D3               	movwf	??_main
  2047  04E2  0853               	movf	??_main,w
  2048  04E3  00A1               	movwf	eeprom_Write@iAddress
  2049  04E4  3000               	movlw	0
  2050  04E5  120A  118A  2302  120A  118A  	fcall	_eeprom_Write
  2051  04EA                     l3566:	
  2052                           ;main.c: 46: }
  2053                           
  2054                           ;main.c: 45: break;
  2055                           
  2056  04EA  1283               	bcf	3,5	;RP0=0, select bank0
  2057  04EB  1303               	bcf	3,6	;RP1=0, select bank0
  2058  04EC  0859               	movf	_g_state,w
  2059                           
  2060                           ; Switch size 1, requested type "space"
  2061                           ; Number of cases is 4, Range of values is 0 to 3
  2062                           ; switch strategies available:
  2063                           ; Name         Instructions Cycles
  2064                           ; simple_byte           13     7 (average)
  2065                           ; direct_byte           20     8 (fixed)
  2066                           ; jumptable            260     6 (fixed)
  2067                           ;	Chosen strategy is simple_byte
  2068  04ED  3A00               	xorlw	0	; case 0
  2069  04EE  1903               	skipnz
  2070  04EF  2CD3               	goto	l3556
  2071  04F0  3A01               	xorlw	1	; case 1
  2072  04F1  1903               	skipnz
  2073  04F2  2CDA               	goto	l3558
  2074  04F3  3A03               	xorlw	3	; case 2
  2075  04F4  1903               	skipnz
  2076  04F5  2CDC               	goto	l3560
  2077  04F6  3A01               	xorlw	1	; case 3
  2078  04F7  1903               	skipnz
  2079  04F8  2CDE               	goto	l3562
  2080  04F9  2CEA               	goto	l3566
  2081  04FA  2CEA               	goto	l3566
  2082  04FB                     __end_of_main:	
  2083                           ;main.c: 47: }
  2084                           ;main.c: 48: return;
  2085                           
  2086                           
  2087                           	psect	text1
  2088  038C                     __ptext1:	
  2089 ;; *************** function _system_Initialize *****************
  2090 ;; Defined at:
  2091 ;;		line 10 in file "SYST_Init.c"
  2092 ;; Parameters:    Size  Location     Type
  2093 ;;		None
  2094 ;; Auto vars:     Size  Location     Type
  2095 ;;		None
  2096 ;; Return value:  Size  Location     Type
  2097 ;;                  1    wreg      void 
  2098 ;; Registers used:
  2099 ;;		wreg, status,2, status,0, pclath, cstack
  2100 ;; Tracked objects:
  2101 ;;		On entry : 0/0
  2102 ;;		On exit  : 0/0
  2103 ;;		Unchanged: 0/0
  2104 ;; Data sizes:     COMMON   BANK0   BANK1   BANK3   BANK2
  2105 ;;      Params:         0       0       0       0       0
  2106 ;;      Locals:         0       0       0       0       0
  2107 ;;      Temps:          0       0       0       0       0
  2108 ;;      Totals:         0       0       0       0       0
  2109 ;;Total ram usage:        0 bytes
  2110 ;; Hardware stack levels used:    1
  2111 ;; Hardware stack levels required when called:    4
  2112 ;; This function calls:
  2113 ;;		_ADC_Init
  2114 ;;		_Interrupt_Init
  2115 ;;		_Lcd_Init
  2116 ;;		_Oscillator_Init
  2117 ;;		_PWM_DutyCycle
  2118 ;;		_PWM_Init
  2119 ;;		_SPI_Init
  2120 ;;		_TMR0_Init
  2121 ;;		_UART_Init
  2122 ;;		_pinManager
  2123 ;; This function is called by:
  2124 ;;		_main
  2125 ;; This function uses a non-reentrant model
  2126 ;;
  2127                           
  2128                           
  2129                           ;psect for function _system_Initialize
  2130  038C                     _system_Initialize:	
  2131                           
  2132                           ;SYST_Init.c: 11: Oscillator_Init();
  2133                           
  2134                           ;incstack = 0
  2135                           ; Regs used in _system_Initialize: [wreg+status,2+status,0+pclath+cstack]
  2136  038C  120A  118A  2117  120A  118A  	fcall	_Oscillator_Init
  2137                           
  2138                           ;SYST_Init.c: 12: Interrupt_Init();
  2139  0391  120A  118A  2114  120A  118A  	fcall	_Interrupt_Init
  2140                           
  2141                           ;SYST_Init.c: 13: pinManager();
  2142  0396  120A  118A  220E  120A  118A  	fcall	_pinManager
  2143                           
  2144                           ;SYST_Init.c: 14: Lcd_Init();
  2145  039B  120A  118A  23DB  120A  118A  	fcall	_Lcd_Init
  2146                           
  2147                           ;SYST_Init.c: 15: ADC_Init();
  2148  03A0  120A  118A  2176  120A  118A  	fcall	_ADC_Init
  2149                           
  2150                           ;SYST_Init.c: 16: TMR0_Init();
  2151  03A5  120A  118A  213E  120A  118A  	fcall	_TMR0_Init
  2152                           
  2153                           ;SYST_Init.c: 17: PWM_Init(10000);
  2154  03AA  3000               	movlw	0
  2155  03AB  1283               	bcf	3,5	;RP0=0, select bank0
  2156  03AC  1303               	bcf	3,6	;RP1=0, select bank0
  2157  03AD  00BE               	movwf	PWM_Init@iFrequency+3
  2158  03AE  3000               	movlw	0
  2159  03AF  00BD               	movwf	PWM_Init@iFrequency+2
  2160  03B0  3027               	movlw	39
  2161  03B1  00BC               	movwf	PWM_Init@iFrequency+1
  2162  03B2  3010               	movlw	16
  2163  03B3  00BB               	movwf	PWM_Init@iFrequency
  2164  03B4  120A  118A  2347  120A  118A  	fcall	_PWM_Init
  2165                           
  2166                           ;SYST_Init.c: 18: PWM_DutyCycle(80);
  2167  03B9  3000               	movlw	0
  2168  03BA  1283               	bcf	3,5	;RP0=0, select bank0
  2169  03BB  1303               	bcf	3,6	;RP1=0, select bank0
  2170  03BC  00BE               	movwf	PWM_DutyCycle@iDutyCycle+3
  2171  03BD  3000               	movlw	0
  2172  03BE  00BD               	movwf	PWM_DutyCycle@iDutyCycle+2
  2173  03BF  3000               	movlw	0
  2174  03C0  00BC               	movwf	PWM_DutyCycle@iDutyCycle+1
  2175  03C1  3050               	movlw	80
  2176  03C2  00BB               	movwf	PWM_DutyCycle@iDutyCycle
  2177  03C3  120A  118A  2569  120A  118A  	fcall	_PWM_DutyCycle
  2178                           
  2179                           ;SYST_Init.c: 19: SPI_Init();
  2180  03C8  120A  118A  2132  120A  118A  	fcall	_SPI_Init
  2181                           
  2182                           ;SYST_Init.c: 20: UART_Init(115200);
  2183  03CD  3000               	movlw	0
  2184  03CE  1283               	bcf	3,5	;RP0=0, select bank0
  2185  03CF  1303               	bcf	3,6	;RP1=0, select bank0
  2186  03D0  00BE               	movwf	UART_Init@baudRate+3
  2187  03D1  3001               	movlw	1
  2188  03D2  00BD               	movwf	UART_Init@baudRate+2
  2189  03D3  30C2               	movlw	194
  2190  03D4  00BC               	movwf	UART_Init@baudRate+1
  2191  03D5  3000               	movlw	0
  2192  03D6  00BB               	movwf	UART_Init@baudRate
  2193  03D7  120A  118A  227D   	fcall	_UART_Init
  2194  03DA  0008               	return
  2195  03DB                     __end_of_system_Initialize:	
  2196                           
  2197                           	psect	text2
  2198  020E                     __ptext2:	
  2199 ;; *************** function _pinManager *****************
  2200 ;; Defined at:
  2201 ;;		line 19 in file "pin_Manager.c"
  2202 ;; Parameters:    Size  Location     Type
  2203 ;;		None
  2204 ;; Auto vars:     Size  Location     Type
  2205 ;;		None
  2206 ;; Return value:  Size  Location     Type
  2207 ;;                  1    wreg      void 
  2208 ;; Registers used:
  2209 ;;		status,2
  2210 ;; Tracked objects:
  2211 ;;		On entry : 0/0
  2212 ;;		On exit  : 0/0
  2213 ;;		Unchanged: 0/0
  2214 ;; Data sizes:     COMMON   BANK0   BANK1   BANK3   BANK2
  2215 ;;      Params:         0       0       0       0       0
  2216 ;;      Locals:         0       0       0       0       0
  2217 ;;      Temps:          0       0       0       0       0
  2218 ;;      Totals:         0       0       0       0       0
  2219 ;;Total ram usage:        0 bytes
  2220 ;; Hardware stack levels used:    1
  2221 ;; Hardware stack levels required when called:    1
  2222 ;; This function calls:
  2223 ;;		Nothing
  2224 ;; This function is called by:
  2225 ;;		_system_Initialize
  2226 ;; This function uses a non-reentrant model
  2227 ;;
  2228                           
  2229                           
  2230                           ;psect for function _pinManager
  2231  020E                     _pinManager:	
  2232                           
  2233                           ;pin_Manager.c: 21: TRISD = 0;
  2234                           
  2235                           ;incstack = 0
  2236                           ; Regs used in _pinManager: [status,2]
  2237  020E  1683               	bsf	3,5	;RP0=1, select bank1
  2238  020F  1303               	bcf	3,6	;RP1=0, select bank1
  2239  0210  0188               	clrf	8	;volatile
  2240                           
  2241                           ;pin_Manager.c: 23: ANSELH = 0;
  2242  0211  1683               	bsf	3,5	;RP0=1, select bank3
  2243  0212  1703               	bsf	3,6	;RP1=1, select bank3
  2244  0213  0189               	clrf	9	;volatile
  2245                           
  2246                           ;pin_Manager.c: 24: TRISB = 0;
  2247  0214  1683               	bsf	3,5	;RP0=1, select bank1
  2248  0215  1303               	bcf	3,6	;RP1=0, select bank1
  2249  0216  0186               	clrf	6	;volatile
  2250                           
  2251                           ;pin_Manager.c: 26: TRISBbits.TRISB6 = 1;
  2252  0217  1706               	bsf	6,6	;volatile
  2253                           
  2254                           ;pin_Manager.c: 27: TRISBbits.TRISB7 = 1;
  2255  0218  1786               	bsf	6,7	;volatile
  2256                           
  2257                           ;pin_Manager.c: 28: TRISCbits.TRISC2 = 0;
  2258  0219  1107               	bcf	7,2	;volatile
  2259                           
  2260                           ;pin_Manager.c: 30: ANSELbits.ANS1 = 0;
  2261  021A  1683               	bsf	3,5	;RP0=1, select bank3
  2262  021B  1703               	bsf	3,6	;RP1=1, select bank3
  2263  021C  1088               	bcf	8,1	;volatile
  2264                           
  2265                           ;pin_Manager.c: 31: ANSELbits.ANS2 = 0;
  2266  021D  1108               	bcf	8,2	;volatile
  2267                           
  2268                           ;pin_Manager.c: 32: ANSELbits.ANS3 = 0;
  2269  021E  1188               	bcf	8,3	;volatile
  2270                           
  2271                           ;pin_Manager.c: 33: ANSELbits.ANS4 = 0;
  2272  021F  1208               	bcf	8,4	;volatile
  2273                           
  2274                           ;pin_Manager.c: 35: TRISAbits.TRISA1 = 0;
  2275  0220  1683               	bsf	3,5	;RP0=1, select bank1
  2276  0221  1303               	bcf	3,6	;RP1=0, select bank1
  2277  0222  1085               	bcf	5,1	;volatile
  2278                           
  2279                           ;pin_Manager.c: 36: TRISAbits.TRISA2 = 0;
  2280  0223  1105               	bcf	5,2	;volatile
  2281                           
  2282                           ;pin_Manager.c: 37: TRISAbits.TRISA3 = 0;
  2283  0224  1185               	bcf	5,3	;volatile
  2284                           
  2285                           ;pin_Manager.c: 38: TRISAbits.TRISA4 = 0;
  2286  0225  1205               	bcf	5,4	;volatile
  2287                           
  2288                           ;pin_Manager.c: 40: ANSELbits.ANS0 = 1;
  2289  0226  1683               	bsf	3,5	;RP0=1, select bank3
  2290  0227  1703               	bsf	3,6	;RP1=1, select bank3
  2291  0228  1408               	bsf	8,0	;volatile
  2292                           
  2293                           ;pin_Manager.c: 41: ANSELbits.ANS5 = 0;
  2294  0229  1288               	bcf	8,5	;volatile
  2295                           
  2296                           ;pin_Manager.c: 43: TRISAbits.TRISA0 = 1;
  2297  022A  1683               	bsf	3,5	;RP0=1, select bank1
  2298  022B  1303               	bcf	3,6	;RP1=0, select bank1
  2299  022C  1405               	bsf	5,0	;volatile
  2300                           
  2301                           ;pin_Manager.c: 45: TRISCbits.TRISC5 = 0;
  2302  022D  1287               	bcf	7,5	;volatile
  2303                           
  2304                           ;pin_Manager.c: 46: TRISCbits.TRISC4 = 1;
  2305  022E  1607               	bsf	7,4	;volatile
  2306                           
  2307                           ;pin_Manager.c: 47: TRISAbits.TRISA5 = 0;
  2308  022F  1285               	bcf	5,5	;volatile
  2309                           
  2310                           ;pin_Manager.c: 48: TRISCbits.TRISC3 = 0;
  2311  0230  1187               	bcf	7,3	;volatile
  2312                           
  2313                           ;pin_Manager.c: 50: CM2CON0bits.C2ON = 0;
  2314  0231  1283               	bcf	3,5	;RP0=0, select bank2
  2315  0232  1703               	bsf	3,6	;RP1=1, select bank2
  2316  0233  1388               	bcf	8,7	;volatile
  2317                           
  2318                           ;pin_Manager.c: 53: PORTA = 0;
  2319  0234  1283               	bcf	3,5	;RP0=0, select bank0
  2320  0235  1303               	bcf	3,6	;RP1=0, select bank0
  2321  0236  0185               	clrf	5	;volatile
  2322                           
  2323                           ;pin_Manager.c: 54: PORTB = 0;
  2324  0237  0186               	clrf	6	;volatile
  2325                           
  2326                           ;pin_Manager.c: 55: PORTC = 0;
  2327  0238  0187               	clrf	7	;volatile
  2328                           
  2329                           ;pin_Manager.c: 56: PORTD = 0;
  2330  0239  0188               	clrf	8	;volatile
  2331                           
  2332                           ;pin_Manager.c: 57: PORTE = 0;
  2333  023A  0189               	clrf	9	;volatile
  2334  023B  0008               	return
  2335  023C                     __end_of_pinManager:	
  2336                           
  2337                           	psect	text3
  2338  027D                     __ptext3:	
  2339 ;; *************** function _UART_Init *****************
  2340 ;; Defined at:
  2341 ;;		line 10 in file "uart_Init.c"
  2342 ;; Parameters:    Size  Location     Type
  2343 ;;  baudRate        4   27[BANK0 ] unsigned long 
  2344 ;; Auto vars:     Size  Location     Type
  2345 ;;		None
  2346 ;; Return value:  Size  Location     Type
  2347 ;;                  1    wreg      void 
  2348 ;; Registers used:
  2349 ;;		wreg, status,2, status,0, pclath, cstack
  2350 ;; Tracked objects:
  2351 ;;		On entry : 0/0
  2352 ;;		On exit  : 0/0
  2353 ;;		Unchanged: 0/0
  2354 ;; Data sizes:     COMMON   BANK0   BANK1   BANK3   BANK2
  2355 ;;      Params:         0       4       0       0       0
  2356 ;;      Locals:         0       0       0       0       0
  2357 ;;      Temps:          0       4       0       0       0
  2358 ;;      Totals:         0       8       0       0       0
  2359 ;;Total ram usage:        8 bytes
  2360 ;; Hardware stack levels used:    1
  2361 ;; Hardware stack levels required when called:    2
  2362 ;; This function calls:
  2363 ;;		___lldiv
  2364 ;; This function is called by:
  2365 ;;		_system_Initialize
  2366 ;; This function uses a non-reentrant model
  2367 ;;
  2368                           
  2369                           
  2370                           ;psect for function _UART_Init
  2371  027D                     _UART_Init:	
  2372                           
  2373                           ;uart_Init.c: 12: TRISCbits.TRISC6 = 1;
  2374                           
  2375                           ;incstack = 0
  2376                           ; Regs used in _UART_Init: [wreg+status,2+status,0+pclath+cstack]
  2377  027D  1683               	bsf	3,5	;RP0=1, select bank1
  2378  027E  1303               	bcf	3,6	;RP1=0, select bank1
  2379  027F  1707               	bsf	7,6	;volatile
  2380                           
  2381                           ;uart_Init.c: 13: TRISCbits.TRISC7 = 1;
  2382  0280  1787               	bsf	7,7	;volatile
  2383                           
  2384                           ;uart_Init.c: 15: TXSTAbits.TXEN = 1;
  2385  0281  1698               	bsf	24,5	;volatile
  2386                           
  2387                           ;uart_Init.c: 16: TXSTAbits.SYNC = 0;
  2388  0282  1218               	bcf	24,4	;volatile
  2389                           
  2390                           ;uart_Init.c: 17: TXSTAbits.TX9 = 0;
  2391  0283  1318               	bcf	24,6	;volatile
  2392                           
  2393                           ;uart_Init.c: 18: RCSTAbits.SPEN = 1;
  2394  0284  1283               	bcf	3,5	;RP0=0, select bank0
  2395  0285  1303               	bcf	3,6	;RP1=0, select bank0
  2396  0286  1798               	bsf	24,7	;volatile
  2397                           
  2398                           ;uart_Init.c: 19: RCSTAbits.CREN = 1;
  2399  0287  1618               	bsf	24,4	;volatile
  2400                           
  2401                           ;uart_Init.c: 20: RCSTAbits.RX9 = 0;
  2402  0288  1318               	bcf	24,6	;volatile
  2403                           
  2404                           ;uart_Init.c: 22: TXSTAbits.BRGH = 1;
  2405  0289  1683               	bsf	3,5	;RP0=1, select bank1
  2406  028A  1303               	bcf	3,6	;RP1=0, select bank1
  2407  028B  1518               	bsf	24,2	;volatile
  2408                           
  2409                           ;uart_Init.c: 23: BAUDCTLbits.BRG16 = 1;
  2410  028C  1683               	bsf	3,5	;RP0=1, select bank3
  2411  028D  1703               	bsf	3,6	;RP1=1, select bank3
  2412  028E  1587               	bsf	7,3	;volatile
  2413                           
  2414                           ;uart_Init.c: 24: SPBRG = ((8000000UL/baudRate)/4)-1;
  2415  028F  1283               	bcf	3,5	;RP0=0, select bank0
  2416  0290  1303               	bcf	3,6	;RP1=0, select bank0
  2417  0291  083E               	movf	UART_Init@baudRate+3,w
  2418  0292  00B0               	movwf	___lldiv@divisor+3
  2419  0293  083D               	movf	UART_Init@baudRate+2,w
  2420  0294  00AF               	movwf	___lldiv@divisor+2
  2421  0295  083C               	movf	UART_Init@baudRate+1,w
  2422  0296  00AE               	movwf	___lldiv@divisor+1
  2423  0297  083B               	movf	UART_Init@baudRate,w
  2424  0298  00AD               	movwf	___lldiv@divisor
  2425  0299  3000               	movlw	0
  2426  029A  00B4               	movwf	___lldiv@dividend+3
  2427  029B  307A               	movlw	122
  2428  029C  00B3               	movwf	___lldiv@dividend+2
  2429  029D  3012               	movlw	18
  2430  029E  00B2               	movwf	___lldiv@dividend+1
  2431  029F  3000               	movlw	0
  2432  02A0  00B1               	movwf	___lldiv@dividend
  2433  02A1  120A  118A  243B  120A  118A  	fcall	___lldiv
  2434  02A6  1283               	bcf	3,5	;RP0=0, select bank0
  2435  02A7  1303               	bcf	3,6	;RP1=0, select bank0
  2436  02A8  082D               	movf	?___lldiv,w
  2437  02A9  00BF               	movwf	??_UART_Init
  2438  02AA  082E               	movf	?___lldiv+1,w
  2439  02AB  00C0               	movwf	??_UART_Init+1
  2440  02AC  082F               	movf	?___lldiv+2,w
  2441  02AD  00C1               	movwf	??_UART_Init+2
  2442  02AE  0830               	movf	?___lldiv+3,w
  2443  02AF  00C2               	movwf	??_UART_Init+3
  2444  02B0  3002               	movlw	2
  2445  02B1                     u1265:	
  2446  02B1  1003               	clrc
  2447  02B2  0CC2               	rrf	??_UART_Init+3,f
  2448  02B3  0CC1               	rrf	??_UART_Init+2,f
  2449  02B4  0CC0               	rrf	??_UART_Init+1,f
  2450  02B5  0CBF               	rrf	??_UART_Init,f
  2451  02B6  3EFF               	addlw	-1
  2452  02B7  1D03               	skipz
  2453  02B8  2AB1               	goto	u1265
  2454  02B9  083F               	movf	??_UART_Init,w
  2455  02BA  3EFF               	addlw	255
  2456  02BB  1683               	bsf	3,5	;RP0=1, select bank1
  2457  02BC  1303               	bcf	3,6	;RP1=0, select bank1
  2458  02BD  0099               	movwf	25	;volatile
  2459  02BE  0008               	return
  2460  02BF                     __end_of_UART_Init:	
  2461                           
  2462                           	psect	text4
  2463  013E                     __ptext4:	
  2464 ;; *************** function _TMR0_Init *****************
  2465 ;; Defined at:
  2466 ;;		line 19 in file "timer_Init.c"
  2467 ;; Parameters:    Size  Location     Type
  2468 ;;		None
  2469 ;; Auto vars:     Size  Location     Type
  2470 ;;		None
  2471 ;; Return value:  Size  Location     Type
  2472 ;;                  1    wreg      void 
  2473 ;; Registers used:
  2474 ;;		wreg, status,2, status,0
  2475 ;; Tracked objects:
  2476 ;;		On entry : 0/0
  2477 ;;		On exit  : 0/0
  2478 ;;		Unchanged: 0/0
  2479 ;; Data sizes:     COMMON   BANK0   BANK1   BANK3   BANK2
  2480 ;;      Params:         0       0       0       0       0
  2481 ;;      Locals:         0       0       0       0       0
  2482 ;;      Temps:          0       0       0       0       0
  2483 ;;      Totals:         0       0       0       0       0
  2484 ;;Total ram usage:        0 bytes
  2485 ;; Hardware stack levels used:    1
  2486 ;; Hardware stack levels required when called:    1
  2487 ;; This function calls:
  2488 ;;		Nothing
  2489 ;; This function is called by:
  2490 ;;		_system_Initialize
  2491 ;; This function uses a non-reentrant model
  2492 ;;
  2493                           
  2494                           
  2495                           ;psect for function _TMR0_Init
  2496  013E                     _TMR0_Init:	
  2497                           
  2498                           ;timer_Init.c: 20: INTCONbits.T0IE = 1;
  2499                           
  2500                           ;incstack = 0
  2501                           ; Regs used in _TMR0_Init: [wreg+status,2+status,0]
  2502  013E  168B               	bsf	11,5	;volatile
  2503                           
  2504                           ;timer_Init.c: 21: INTCONbits.T0IF = 0;
  2505  013F  110B               	bcf	11,2	;volatile
  2506                           
  2507                           ;timer_Init.c: 23: OPTION_REGbits.T0CS = 0;
  2508  0140  1683               	bsf	3,5	;RP0=1, select bank1
  2509  0141  1303               	bcf	3,6	;RP1=0, select bank1
  2510  0142  1281               	bcf	1,5	;volatile
  2511                           
  2512                           ;timer_Init.c: 24: OPTION_REGbits.PSA = 0;
  2513  0143  1181               	bcf	1,3	;volatile
  2514                           
  2515                           ;timer_Init.c: 25: OPTION_REGbits.PS = 0b101;
  2516  0144  0801               	movf	1,w	;volatile
  2517  0145  39F8               	andlw	-8
  2518  0146  3805               	iorlw	5
  2519  0147  0081               	movwf	1	;volatile
  2520                           
  2521                           ;timer_Init.c: 26: TMR0 = 57;
  2522  0148  3039               	movlw	57
  2523  0149  1283               	bcf	3,5	;RP0=0, select bank0
  2524  014A  1303               	bcf	3,6	;RP1=0, select bank0
  2525  014B  0081               	movwf	1	;volatile
  2526  014C  0008               	return
  2527  014D                     __end_of_TMR0_Init:	
  2528                           
  2529                           	psect	text5
  2530  0132                     __ptext5:	
  2531 ;; *************** function _SPI_Init *****************
  2532 ;; Defined at:
  2533 ;;		line 10 in file "spi_Init.c"
  2534 ;; Parameters:    Size  Location     Type
  2535 ;;		None
  2536 ;; Auto vars:     Size  Location     Type
  2537 ;;		None
  2538 ;; Return value:  Size  Location     Type
  2539 ;;                  1    wreg      void 
  2540 ;; Registers used:
  2541 ;;		wreg, status,2, status,0
  2542 ;; Tracked objects:
  2543 ;;		On entry : 0/0
  2544 ;;		On exit  : 0/0
  2545 ;;		Unchanged: 0/0
  2546 ;; Data sizes:     COMMON   BANK0   BANK1   BANK3   BANK2
  2547 ;;      Params:         0       0       0       0       0
  2548 ;;      Locals:         0       0       0       0       0
  2549 ;;      Temps:          0       0       0       0       0
  2550 ;;      Totals:         0       0       0       0       0
  2551 ;;Total ram usage:        0 bytes
  2552 ;; Hardware stack levels used:    1
  2553 ;; Hardware stack levels required when called:    1
  2554 ;; This function calls:
  2555 ;;		Nothing
  2556 ;; This function is called by:
  2557 ;;		_system_Initialize
  2558 ;; This function uses a non-reentrant model
  2559 ;;
  2560                           
  2561                           
  2562                           ;psect for function _SPI_Init
  2563  0132                     _SPI_Init:	
  2564                           
  2565                           ;spi_Init.c: 12: SSPCONbits.SSPEN = 1;
  2566                           
  2567                           ;incstack = 0
  2568                           ; Regs used in _SPI_Init: [wreg+status,2+status,0]
  2569  0132  1283               	bcf	3,5	;RP0=0, select bank0
  2570  0133  1303               	bcf	3,6	;RP1=0, select bank0
  2571  0134  1694               	bsf	20,5	;volatile
  2572                           
  2573                           ;spi_Init.c: 13: SSPCONbits.SSPM = 0b000;
  2574  0135  30F0               	movlw	-16
  2575  0136  0594               	andwf	20,f	;volatile
  2576                           
  2577                           ;spi_Init.c: 14: SSPCONbits.WCOL = 0;
  2578  0137  1394               	bcf	20,7	;volatile
  2579                           
  2580                           ;spi_Init.c: 15: SSPCONbits.CKP = 0;
  2581  0138  1214               	bcf	20,4	;volatile
  2582                           
  2583                           ;spi_Init.c: 16: SSPSTATbits.SMP = 1;
  2584  0139  1683               	bsf	3,5	;RP0=1, select bank1
  2585  013A  1303               	bcf	3,6	;RP1=0, select bank1
  2586  013B  1794               	bsf	20,7	;volatile
  2587                           
  2588                           ;spi_Init.c: 17: SSPSTATbits.CKE = 1;
  2589  013C  1714               	bsf	20,6	;volatile
  2590  013D  0008               	return
  2591  013E                     __end_of_SPI_Init:	
  2592                           
  2593                           	psect	text6
  2594  0347                     __ptext6:	
  2595 ;; *************** function _PWM_Init *****************
  2596 ;; Defined at:
  2597 ;;		line 14 in file "pwm_Init.c"
  2598 ;; Parameters:    Size  Location     Type
  2599 ;;  iFrequency      4   27[BANK0 ] unsigned long 
  2600 ;; Auto vars:     Size  Location     Type
  2601 ;;		None
  2602 ;; Return value:  Size  Location     Type
  2603 ;;                  1    wreg      void 
  2604 ;; Registers used:
  2605 ;;		wreg, status,2, status,0, pclath, cstack
  2606 ;; Tracked objects:
  2607 ;;		On entry : 0/0
  2608 ;;		On exit  : 0/0
  2609 ;;		Unchanged: 0/0
  2610 ;; Data sizes:     COMMON   BANK0   BANK1   BANK3   BANK2
  2611 ;;      Params:         0       4       0       0       0
  2612 ;;      Locals:         0       0       0       0       0
  2613 ;;      Temps:          0       4       0       0       0
  2614 ;;      Totals:         0       8       0       0       0
  2615 ;;Total ram usage:        8 bytes
  2616 ;; Hardware stack levels used:    1
  2617 ;; Hardware stack levels required when called:    2
  2618 ;; This function calls:
  2619 ;;		___lldiv
  2620 ;; This function is called by:
  2621 ;;		_system_Initialize
  2622 ;; This function uses a non-reentrant model
  2623 ;;
  2624                           
  2625                           
  2626                           ;psect for function _PWM_Init
  2627  0347                     _PWM_Init:	
  2628                           
  2629                           ;pwm_Init.c: 15: TRISCbits.TRISC2 = 1;
  2630                           
  2631                           ;incstack = 0
  2632                           ; Regs used in _PWM_Init: [wreg+status,2+status,0+pclath+cstack]
  2633  0347  1683               	bsf	3,5	;RP0=1, select bank1
  2634  0348  1303               	bcf	3,6	;RP1=0, select bank1
  2635  0349  1507               	bsf	7,2	;volatile
  2636                           
  2637                           ;pwm_Init.c: 17: PR2 = (8000000UL / (iFrequency * 4)) -1;
  2638  034A  1283               	bcf	3,5	;RP0=0, select bank0
  2639  034B  1303               	bcf	3,6	;RP1=0, select bank0
  2640  034C  083B               	movf	PWM_Init@iFrequency,w
  2641  034D  00BF               	movwf	??_PWM_Init
  2642  034E  083C               	movf	PWM_Init@iFrequency+1,w
  2643  034F  00C0               	movwf	??_PWM_Init+1
  2644  0350  083D               	movf	PWM_Init@iFrequency+2,w
  2645  0351  00C1               	movwf	??_PWM_Init+2
  2646  0352  083E               	movf	PWM_Init@iFrequency+3,w
  2647  0353  00C2               	movwf	??_PWM_Init+3
  2648  0354  3002               	movlw	2
  2649  0355                     u1235:	
  2650  0355  1003               	clrc
  2651  0356  0DBF               	rlf	??_PWM_Init,f
  2652  0357  0DC0               	rlf	??_PWM_Init+1,f
  2653  0358  0DC1               	rlf	??_PWM_Init+2,f
  2654  0359  0DC2               	rlf	??_PWM_Init+3,f
  2655  035A  3EFF               	addlw	-1
  2656  035B  1D03               	skipz
  2657  035C  2B55               	goto	u1235
  2658  035D  0842               	movf	??_PWM_Init+3,w
  2659  035E  00B0               	movwf	___lldiv@divisor+3
  2660  035F  0841               	movf	??_PWM_Init+2,w
  2661  0360  00AF               	movwf	___lldiv@divisor+2
  2662  0361  0840               	movf	??_PWM_Init+1,w
  2663  0362  00AE               	movwf	___lldiv@divisor+1
  2664  0363  083F               	movf	??_PWM_Init,w
  2665  0364  00AD               	movwf	___lldiv@divisor
  2666  0365  3000               	movlw	0
  2667  0366  00B4               	movwf	___lldiv@dividend+3
  2668  0367  307A               	movlw	122
  2669  0368  00B3               	movwf	___lldiv@dividend+2
  2670  0369  3012               	movlw	18
  2671  036A  00B2               	movwf	___lldiv@dividend+1
  2672  036B  3000               	movlw	0
  2673  036C  00B1               	movwf	___lldiv@dividend
  2674  036D  120A  118A  243B   	fcall	___lldiv
  2675  0370  1283               	bcf	3,5	;RP0=0, select bank0
  2676  0371  1303               	bcf	3,6	;RP1=0, select bank0
  2677  0372  082D               	movf	?___lldiv,w
  2678  0373  3EFF               	addlw	255
  2679  0374  1683               	bsf	3,5	;RP0=1, select bank1
  2680  0375  1303               	bcf	3,6	;RP1=0, select bank1
  2681  0376  0092               	movwf	18	;volatile
  2682                           
  2683                           ;pwm_Init.c: 18: CCP1CONbits.P1M = 0b00;
  2684  0377  303F               	movlw	-193
  2685  0378  1283               	bcf	3,5	;RP0=0, select bank0
  2686  0379  1303               	bcf	3,6	;RP1=0, select bank0
  2687  037A  0597               	andwf	23,f	;volatile
  2688                           
  2689                           ;pwm_Init.c: 19: CCP1CONbits.CCP1M = 0b1100;
  2690  037B  0817               	movf	23,w	;volatile
  2691  037C  39F0               	andlw	-16
  2692  037D  380C               	iorlw	12
  2693  037E  0097               	movwf	23	;volatile
  2694                           
  2695                           ;pwm_Init.c: 20: CCP1CONbits.DC1B = 0b00;
  2696  037F  30CF               	movlw	-49
  2697  0380  0597               	andwf	23,f	;volatile
  2698                           
  2699                           ;pwm_Init.c: 21: CCPR1L = 0x00;
  2700  0381  0195               	clrf	21	;volatile
  2701                           
  2702                           ;pwm_Init.c: 23: PIR1bits.TMR2IF = 0;
  2703  0382  108C               	bcf	12,1	;volatile
  2704                           
  2705                           ;pwm_Init.c: 24: T2CONbits.TOUTPS = 0b0000;
  2706  0383  3087               	movlw	-121
  2707  0384  0592               	andwf	18,f	;volatile
  2708                           
  2709                           ;pwm_Init.c: 25: T2CONbits.T2CKPS = 0b00;
  2710  0385  30FC               	movlw	-4
  2711  0386  0592               	andwf	18,f	;volatile
  2712                           
  2713                           ;pwm_Init.c: 26: T2CONbits.TMR2ON = 1;
  2714  0387  1512               	bsf	18,2	;volatile
  2715                           
  2716                           ;pwm_Init.c: 27: TRISCbits.TRISC2 = 0;
  2717  0388  1683               	bsf	3,5	;RP0=1, select bank1
  2718  0389  1303               	bcf	3,6	;RP1=0, select bank1
  2719  038A  1107               	bcf	7,2	;volatile
  2720  038B  0008               	return
  2721  038C                     __end_of_PWM_Init:	
  2722                           
  2723                           	psect	text7
  2724  0569                     __ptext7:	
  2725 ;; *************** function _PWM_DutyCycle *****************
  2726 ;; Defined at:
  2727 ;;		line 30 in file "pwm_Init.c"
  2728 ;; Parameters:    Size  Location     Type
  2729 ;;  iDutyCycle      4   27[BANK0 ] unsigned long 
  2730 ;; Auto vars:     Size  Location     Type
  2731 ;;		None
  2732 ;; Return value:  Size  Location     Type
  2733 ;;                  1    wreg      void 
  2734 ;; Registers used:
  2735 ;;		wreg, status,2, status,0, pclath, cstack
  2736 ;; Tracked objects:
  2737 ;;		On entry : 0/0
  2738 ;;		On exit  : 0/0
  2739 ;;		Unchanged: 0/0
  2740 ;; Data sizes:     COMMON   BANK0   BANK1   BANK3   BANK2
  2741 ;;      Params:         0       4       0       0       0
  2742 ;;      Locals:         0       0       0       0       0
  2743 ;;      Temps:          0       4       0       0       0
  2744 ;;      Totals:         0       8       0       0       0
  2745 ;;Total ram usage:        8 bytes
  2746 ;; Hardware stack levels used:    1
  2747 ;; Hardware stack levels required when called:    2
  2748 ;; This function calls:
  2749 ;;		___lldiv
  2750 ;;		___lmul
  2751 ;; This function is called by:
  2752 ;;		_system_Initialize
  2753 ;; This function uses a non-reentrant model
  2754 ;;
  2755                           
  2756                           
  2757                           ;psect for function _PWM_DutyCycle
  2758  0569                     _PWM_DutyCycle:	
  2759                           
  2760                           ;pwm_Init.c: 32: iDutyCycle = (iDutyCycle * (4*(PR2 + 1)))/100;
  2761                           
  2762                           ;incstack = 0
  2763                           ; Regs used in _PWM_DutyCycle: [wreg+status,2+status,0+pclath+cstack]
  2764  0569  3000               	movlw	0
  2765  056A  1283               	bcf	3,5	;RP0=0, select bank0
  2766  056B  1303               	bcf	3,6	;RP1=0, select bank0
  2767  056C  00B0               	movwf	___lldiv@divisor+3
  2768  056D  3000               	movlw	0
  2769  056E  00AF               	movwf	___lldiv@divisor+2
  2770  056F  3000               	movlw	0
  2771  0570  00AE               	movwf	___lldiv@divisor+1
  2772  0571  3064               	movlw	100
  2773  0572  00AD               	movwf	___lldiv@divisor
  2774  0573  1683               	bsf	3,5	;RP0=1, select bank1
  2775  0574  1303               	bcf	3,6	;RP1=0, select bank1
  2776  0575  0812               	movf	18,w	;volatile
  2777  0576  1283               	bcf	3,5	;RP0=0, select bank0
  2778  0577  1303               	bcf	3,6	;RP1=0, select bank0
  2779  0578  00BF               	movwf	??_PWM_DutyCycle
  2780  0579  01C0               	clrf	??_PWM_DutyCycle+1
  2781  057A  1003               	clrc
  2782  057B  0DBF               	rlf	??_PWM_DutyCycle,f
  2783  057C  0DC0               	rlf	??_PWM_DutyCycle+1,f
  2784  057D  1003               	clrc
  2785  057E  0DBF               	rlf	??_PWM_DutyCycle,f
  2786  057F  0DC0               	rlf	??_PWM_DutyCycle+1,f
  2787  0580  083F               	movf	??_PWM_DutyCycle,w
  2788  0581  3E04               	addlw	4
  2789  0582  00A0               	movwf	___lmul@multiplier
  2790  0583  0840               	movf	??_PWM_DutyCycle+1,w
  2791  0584  1803               	skipnc
  2792  0585  3E01               	addlw	1
  2793  0586  3E00               	addlw	0
  2794  0587  00A1               	movwf	___lmul@multiplier+1
  2795  0588  01A2               	clrf	___lmul@multiplier+2
  2796  0589  1BA1               	btfsc	___lmul@multiplier+1,7
  2797  058A  03A2               	decf	___lmul@multiplier+2,f
  2798  058B  0822               	movf	___lmul@multiplier+2,w
  2799  058C  00A3               	movwf	___lmul@multiplier+3
  2800  058D  083E               	movf	PWM_DutyCycle@iDutyCycle+3,w
  2801  058E  00A7               	movwf	___lmul@multiplicand+3
  2802  058F  083D               	movf	PWM_DutyCycle@iDutyCycle+2,w
  2803  0590  00A6               	movwf	___lmul@multiplicand+2
  2804  0591  083C               	movf	PWM_DutyCycle@iDutyCycle+1,w
  2805  0592  00A5               	movwf	___lmul@multiplicand+1
  2806  0593  083B               	movf	PWM_DutyCycle@iDutyCycle,w
  2807  0594  00A4               	movwf	___lmul@multiplicand
  2808  0595  120A  118A  223C  120A  118A  	fcall	___lmul
  2809  059A  1283               	bcf	3,5	;RP0=0, select bank0
  2810  059B  1303               	bcf	3,6	;RP1=0, select bank0
  2811  059C  0823               	movf	?___lmul+3,w
  2812  059D  00B4               	movwf	___lldiv@dividend+3
  2813  059E  0822               	movf	?___lmul+2,w
  2814  059F  00B3               	movwf	___lldiv@dividend+2
  2815  05A0  0821               	movf	?___lmul+1,w
  2816  05A1  00B2               	movwf	___lldiv@dividend+1
  2817  05A2  0820               	movf	?___lmul,w
  2818  05A3  00B1               	movwf	___lldiv@dividend
  2819  05A4  120A  118A  243B  120A  118A  	fcall	___lldiv
  2820  05A9  1283               	bcf	3,5	;RP0=0, select bank0
  2821  05AA  1303               	bcf	3,6	;RP1=0, select bank0
  2822  05AB  0830               	movf	?___lldiv+3,w
  2823  05AC  00BE               	movwf	PWM_DutyCycle@iDutyCycle+3
  2824  05AD  082F               	movf	?___lldiv+2,w
  2825  05AE  00BD               	movwf	PWM_DutyCycle@iDutyCycle+2
  2826  05AF  082E               	movf	?___lldiv+1,w
  2827  05B0  00BC               	movwf	PWM_DutyCycle@iDutyCycle+1
  2828  05B1  082D               	movf	?___lldiv,w
  2829  05B2  00BB               	movwf	PWM_DutyCycle@iDutyCycle
  2830                           
  2831                           ;pwm_Init.c: 33: CCP1CONbits.DC1B = (iDutyCycle<<4);
  2832  05B3  083B               	movf	PWM_DutyCycle@iDutyCycle,w
  2833  05B4  00BF               	movwf	??_PWM_DutyCycle
  2834  05B5  3003               	movlw	3
  2835  05B6                     u3575:	
  2836  05B6  1003               	clrc
  2837  05B7  0DBF               	rlf	??_PWM_DutyCycle,f
  2838  05B8  3EFF               	addlw	-1
  2839  05B9  1D03               	skipz
  2840  05BA  2DB6               	goto	u3575
  2841  05BB  1003               	clrc
  2842  05BC  0D3F               	rlf	??_PWM_DutyCycle,w
  2843  05BD  00C0               	movwf	??_PWM_DutyCycle+1
  2844  05BE  0EC0               	swapf	??_PWM_DutyCycle+1,f
  2845  05BF  0817               	movf	23,w	;volatile
  2846  05C0  0640               	xorwf	??_PWM_DutyCycle+1,w
  2847  05C1  39CF               	andlw	-49
  2848  05C2  0640               	xorwf	??_PWM_DutyCycle+1,w
  2849  05C3  0097               	movwf	23	;volatile
  2850                           
  2851                           ;pwm_Init.c: 34: CCPR1L = (iDutyCycle >> 2);
  2852  05C4  083B               	movf	PWM_DutyCycle@iDutyCycle,w
  2853  05C5  00BF               	movwf	??_PWM_DutyCycle
  2854  05C6  083C               	movf	PWM_DutyCycle@iDutyCycle+1,w
  2855  05C7  00C0               	movwf	??_PWM_DutyCycle+1
  2856  05C8  083D               	movf	PWM_DutyCycle@iDutyCycle+2,w
  2857  05C9  00C1               	movwf	??_PWM_DutyCycle+2
  2858  05CA  083E               	movf	PWM_DutyCycle@iDutyCycle+3,w
  2859  05CB  00C2               	movwf	??_PWM_DutyCycle+3
  2860  05CC  3002               	movlw	2
  2861  05CD                     u3585:	
  2862  05CD  1003               	clrc
  2863  05CE  0CC2               	rrf	??_PWM_DutyCycle+3,f
  2864  05CF  0CC1               	rrf	??_PWM_DutyCycle+2,f
  2865  05D0  0CC0               	rrf	??_PWM_DutyCycle+1,f
  2866  05D1  0CBF               	rrf	??_PWM_DutyCycle,f
  2867  05D2  3EFF               	addlw	-1
  2868  05D3  1D03               	skipz
  2869  05D4  2DCD               	goto	u3585
  2870  05D5  083F               	movf	??_PWM_DutyCycle,w
  2871  05D6  0095               	movwf	21	;volatile
  2872  05D7  0008               	return
  2873  05D8                     __end_of_PWM_DutyCycle:	
  2874                           
  2875                           	psect	text8
  2876  023C                     __ptext8:	
  2877 ;; *************** function ___lmul *****************
  2878 ;; Defined at:
  2879 ;;		line 15 in file "C:\Program Files (x86)\Microchip\xc8\v1.45\sources\common\Umul32.c"
  2880 ;; Parameters:    Size  Location     Type
  2881 ;;  multiplier      4    0[BANK0 ] unsigned long 
  2882 ;;  multiplicand    4    4[BANK0 ] unsigned long 
  2883 ;; Auto vars:     Size  Location     Type
  2884 ;;  product         4    9[BANK0 ] unsigned long 
  2885 ;; Return value:  Size  Location     Type
  2886 ;;                  4    0[BANK0 ] unsigned long 
  2887 ;; Registers used:
  2888 ;;		wreg, status,2, status,0
  2889 ;; Tracked objects:
  2890 ;;		On entry : 0/0
  2891 ;;		On exit  : 0/0
  2892 ;;		Unchanged: 0/0
  2893 ;; Data sizes:     COMMON   BANK0   BANK1   BANK3   BANK2
  2894 ;;      Params:         0       8       0       0       0
  2895 ;;      Locals:         0       4       0       0       0
  2896 ;;      Temps:          0       1       0       0       0
  2897 ;;      Totals:         0      13       0       0       0
  2898 ;;Total ram usage:       13 bytes
  2899 ;; Hardware stack levels used:    1
  2900 ;; Hardware stack levels required when called:    1
  2901 ;; This function calls:
  2902 ;;		Nothing
  2903 ;; This function is called by:
  2904 ;;		_PWM_DutyCycle
  2905 ;; This function uses a non-reentrant model
  2906 ;;
  2907                           
  2908                           
  2909                           ;psect for function ___lmul
  2910  023C                     ___lmul:	
  2911                           
  2912                           ;incstack = 0
  2913                           ; Regs used in ___lmul: [wreg+status,2+status,0]
  2914  023C  3000               	movlw	0
  2915  023D  1283               	bcf	3,5	;RP0=0, select bank0
  2916  023E  1303               	bcf	3,6	;RP1=0, select bank0
  2917  023F  00AC               	movwf	___lmul@product+3
  2918  0240  3000               	movlw	0
  2919  0241  00AB               	movwf	___lmul@product+2
  2920  0242  3000               	movlw	0
  2921  0243  00AA               	movwf	___lmul@product+1
  2922  0244  3000               	movlw	0
  2923  0245  00A9               	movwf	___lmul@product
  2924  0246                     l3124:	
  2925  0246  1C20               	btfss	___lmul@multiplier,0
  2926  0247  2A5C               	goto	l3128
  2927  0248  0824               	movf	___lmul@multiplicand,w
  2928  0249  07A9               	addwf	___lmul@product,f
  2929  024A  0825               	movf	___lmul@multiplicand+1,w
  2930  024B  1103               	clrz
  2931  024C  1803               	skipnc
  2932  024D  3E01               	addlw	1
  2933  024E  1D03               	btfss	3,2
  2934  024F  07AA               	addwf	___lmul@product+1,f
  2935  0250  0826               	movf	___lmul@multiplicand+2,w
  2936  0251  1103               	clrz
  2937  0252  1803               	skipnc
  2938  0253  3E01               	addlw	1
  2939  0254  1D03               	btfss	3,2
  2940  0255  07AB               	addwf	___lmul@product+2,f
  2941  0256  0827               	movf	___lmul@multiplicand+3,w
  2942  0257  1103               	clrz
  2943  0258  1803               	skipnc
  2944  0259  3E01               	addlw	1
  2945  025A  1D03               	btfss	3,2
  2946  025B  07AC               	addwf	___lmul@product+3,f
  2947  025C                     l3128:	
  2948  025C  3001               	movlw	1
  2949  025D  00A8               	movwf	??___lmul
  2950  025E                     u3405:	
  2951  025E  1003               	clrc
  2952  025F  0DA4               	rlf	___lmul@multiplicand,f
  2953  0260  0DA5               	rlf	___lmul@multiplicand+1,f
  2954  0261  0DA6               	rlf	___lmul@multiplicand+2,f
  2955  0262  0DA7               	rlf	___lmul@multiplicand+3,f
  2956  0263  0BA8               	decfsz	??___lmul,f
  2957  0264  2A5E               	goto	u3405
  2958  0265  3001               	movlw	1
  2959  0266                     u3415:	
  2960  0266  1003               	clrc
  2961  0267  0CA3               	rrf	___lmul@multiplier+3,f
  2962  0268  0CA2               	rrf	___lmul@multiplier+2,f
  2963  0269  0CA1               	rrf	___lmul@multiplier+1,f
  2964  026A  0CA0               	rrf	___lmul@multiplier,f
  2965  026B  3EFF               	addlw	-1
  2966  026C  1D03               	skipz
  2967  026D  2A66               	goto	u3415
  2968  026E  0823               	movf	___lmul@multiplier+3,w
  2969  026F  0422               	iorwf	___lmul@multiplier+2,w
  2970  0270  0421               	iorwf	___lmul@multiplier+1,w
  2971  0271  0420               	iorwf	___lmul@multiplier,w
  2972  0272  1D03               	skipz
  2973  0273  2A46               	goto	l3124
  2974  0274  082C               	movf	___lmul@product+3,w
  2975  0275  00A3               	movwf	?___lmul+3
  2976  0276  082B               	movf	___lmul@product+2,w
  2977  0277  00A2               	movwf	?___lmul+2
  2978  0278  082A               	movf	___lmul@product+1,w
  2979  0279  00A1               	movwf	?___lmul+1
  2980  027A  0829               	movf	___lmul@product,w
  2981  027B  00A0               	movwf	?___lmul
  2982  027C  0008               	return
  2983  027D                     __end_of___lmul:	
  2984                           
  2985                           	psect	text9
  2986  043B                     __ptext9:	
  2987 ;; *************** function ___lldiv *****************
  2988 ;; Defined at:
  2989 ;;		line 6 in file "C:\Program Files (x86)\Microchip\xc8\v1.45\sources\common\lldiv.c"
  2990 ;; Parameters:    Size  Location     Type
  2991 ;;  divisor         4   13[BANK0 ] unsigned long 
  2992 ;;  dividend        4   17[BANK0 ] unsigned long 
  2993 ;; Auto vars:     Size  Location     Type
  2994 ;;  quotient        4   22[BANK0 ] unsigned long 
  2995 ;;  counter         1   26[BANK0 ] unsigned char 
  2996 ;; Return value:  Size  Location     Type
  2997 ;;                  4   13[BANK0 ] unsigned long 
  2998 ;; Registers used:
  2999 ;;		wreg, status,2, status,0
  3000 ;; Tracked objects:
  3001 ;;		On entry : 0/0
  3002 ;;		On exit  : 0/0
  3003 ;;		Unchanged: 0/0
  3004 ;; Data sizes:     COMMON   BANK0   BANK1   BANK3   BANK2
  3005 ;;      Params:         0       8       0       0       0
  3006 ;;      Locals:         0       5       0       0       0
  3007 ;;      Temps:          0       1       0       0       0
  3008 ;;      Totals:         0      14       0       0       0
  3009 ;;Total ram usage:       14 bytes
  3010 ;; Hardware stack levels used:    1
  3011 ;; Hardware stack levels required when called:    1
  3012 ;; This function calls:
  3013 ;;		Nothing
  3014 ;; This function is called by:
  3015 ;;		_PWM_Init
  3016 ;;		_PWM_DutyCycle
  3017 ;;		_UART_Init
  3018 ;;		_sprintf
  3019 ;; This function uses a non-reentrant model
  3020 ;;
  3021                           
  3022                           
  3023                           ;psect for function ___lldiv
  3024  043B                     ___lldiv:	
  3025                           
  3026                           ;incstack = 0
  3027                           ; Regs used in ___lldiv: [wreg+status,2+status,0]
  3028  043B  3000               	movlw	0
  3029  043C  1283               	bcf	3,5	;RP0=0, select bank0
  3030  043D  1303               	bcf	3,6	;RP1=0, select bank0
  3031  043E  00B9               	movwf	___lldiv@quotient+3
  3032  043F  3000               	movlw	0
  3033  0440  00B8               	movwf	___lldiv@quotient+2
  3034  0441  3000               	movlw	0
  3035  0442  00B7               	movwf	___lldiv@quotient+1
  3036  0443  3000               	movlw	0
  3037  0444  00B6               	movwf	___lldiv@quotient
  3038  0445  0830               	movf	___lldiv@divisor+3,w
  3039  0446  042F               	iorwf	___lldiv@divisor+2,w
  3040  0447  042E               	iorwf	___lldiv@divisor+1,w
  3041  0448  042D               	iorwf	___lldiv@divisor,w
  3042  0449  1903               	skipnz
  3043  044A  2C92               	goto	l1940
  3044  044B  01BA               	clrf	___lldiv@counter
  3045  044C  0ABA               	incf	___lldiv@counter,f
  3046  044D                     l1926:	
  3047  044D  1BB0               	btfsc	___lldiv@divisor+3,7
  3048  044E  2C5D               	goto	l1928
  3049  044F  3001               	movlw	1
  3050  0450  00B5               	movwf	??___lldiv
  3051  0451                     u1155:	
  3052  0451  1003               	clrc
  3053  0452  0DAD               	rlf	___lldiv@divisor,f
  3054  0453  0DAE               	rlf	___lldiv@divisor+1,f
  3055  0454  0DAF               	rlf	___lldiv@divisor+2,f
  3056  0455  0DB0               	rlf	___lldiv@divisor+3,f
  3057  0456  0BB5               	decfsz	??___lldiv,f
  3058  0457  2C51               	goto	u1155
  3059  0458  3001               	movlw	1
  3060  0459  00B5               	movwf	??___lldiv
  3061  045A  0835               	movf	??___lldiv,w
  3062  045B  07BA               	addwf	___lldiv@counter,f
  3063  045C  2C4D               	goto	l1926
  3064  045D                     l1928:	
  3065  045D  3001               	movlw	1
  3066  045E  00B5               	movwf	??___lldiv
  3067  045F                     u1175:	
  3068  045F  1003               	clrc
  3069  0460  0DB6               	rlf	___lldiv@quotient,f
  3070  0461  0DB7               	rlf	___lldiv@quotient+1,f
  3071  0462  0DB8               	rlf	___lldiv@quotient+2,f
  3072  0463  0DB9               	rlf	___lldiv@quotient+3,f
  3073  0464  0BB5               	decfsz	??___lldiv,f
  3074  0465  2C5F               	goto	u1175
  3075  0466  0830               	movf	___lldiv@divisor+3,w
  3076  0467  0234               	subwf	___lldiv@dividend+3,w
  3077  0468  1D03               	skipz
  3078  0469  2C74               	goto	u1185
  3079  046A  082F               	movf	___lldiv@divisor+2,w
  3080  046B  0233               	subwf	___lldiv@dividend+2,w
  3081  046C  1D03               	skipz
  3082  046D  2C74               	goto	u1185
  3083  046E  082E               	movf	___lldiv@divisor+1,w
  3084  046F  0232               	subwf	___lldiv@dividend+1,w
  3085  0470  1D03               	skipz
  3086  0471  2C74               	goto	u1185
  3087  0472  082D               	movf	___lldiv@divisor,w
  3088  0473  0231               	subwf	___lldiv@dividend,w
  3089  0474                     u1185:	
  3090  0474  1C03               	skipc
  3091  0475  2C85               	goto	l1936
  3092  0476  082D               	movf	___lldiv@divisor,w
  3093  0477  02B1               	subwf	___lldiv@dividend,f
  3094  0478  082E               	movf	___lldiv@divisor+1,w
  3095  0479  1C03               	skipc
  3096  047A  0F2E               	incfsz	___lldiv@divisor+1,w
  3097  047B  02B2               	subwf	___lldiv@dividend+1,f
  3098  047C  082F               	movf	___lldiv@divisor+2,w
  3099  047D  1C03               	skipc
  3100  047E  0F2F               	incfsz	___lldiv@divisor+2,w
  3101  047F  02B3               	subwf	___lldiv@dividend+2,f
  3102  0480  0830               	movf	___lldiv@divisor+3,w
  3103  0481  1C03               	skipc
  3104  0482  0F30               	incfsz	___lldiv@divisor+3,w
  3105  0483  02B4               	subwf	___lldiv@dividend+3,f
  3106  0484  1436               	bsf	___lldiv@quotient,0
  3107  0485                     l1936:	
  3108  0485  3001               	movlw	1
  3109  0486                     u1195:	
  3110  0486  1003               	clrc
  3111  0487  0CB0               	rrf	___lldiv@divisor+3,f
  3112  0488  0CAF               	rrf	___lldiv@divisor+2,f
  3113  0489  0CAE               	rrf	___lldiv@divisor+1,f
  3114  048A  0CAD               	rrf	___lldiv@divisor,f
  3115  048B  3EFF               	addlw	-1
  3116  048C  1D03               	skipz
  3117  048D  2C86               	goto	u1195
  3118  048E  3001               	movlw	1
  3119  048F  02BA               	subwf	___lldiv@counter,f
  3120  0490  1D03               	btfss	3,2
  3121  0491  2C5D               	goto	l1928
  3122  0492                     l1940:	
  3123  0492  0839               	movf	___lldiv@quotient+3,w
  3124  0493  00B0               	movwf	?___lldiv+3
  3125  0494  0838               	movf	___lldiv@quotient+2,w
  3126  0495  00AF               	movwf	?___lldiv+2
  3127  0496  0837               	movf	___lldiv@quotient+1,w
  3128  0497  00AE               	movwf	?___lldiv+1
  3129  0498  0836               	movf	___lldiv@quotient,w
  3130  0499  00AD               	movwf	?___lldiv
  3131  049A  0008               	return
  3132  049B                     __end_of___lldiv:	
  3133                           
  3134                           	psect	text10
  3135  0117                     __ptext10:	
  3136 ;; *************** function _Oscillator_Init *****************
  3137 ;; Defined at:
  3138 ;;		line 23 in file "SYST_Init.c"
  3139 ;; Parameters:    Size  Location     Type
  3140 ;;		None
  3141 ;; Auto vars:     Size  Location     Type
  3142 ;;		None
  3143 ;; Return value:  Size  Location     Type
  3144 ;;                  1    wreg      void 
  3145 ;; Registers used:
  3146 ;;		wreg, status,2
  3147 ;; Tracked objects:
  3148 ;;		On entry : 0/0
  3149 ;;		On exit  : 0/0
  3150 ;;		Unchanged: 0/0
  3151 ;; Data sizes:     COMMON   BANK0   BANK1   BANK3   BANK2
  3152 ;;      Params:         0       0       0       0       0
  3153 ;;      Locals:         0       0       0       0       0
  3154 ;;      Temps:          0       0       0       0       0
  3155 ;;      Totals:         0       0       0       0       0
  3156 ;;Total ram usage:        0 bytes
  3157 ;; Hardware stack levels used:    1
  3158 ;; Hardware stack levels required when called:    1
  3159 ;; This function calls:
  3160 ;;		Nothing
  3161 ;; This function is called by:
  3162 ;;		_system_Initialize
  3163 ;; This function uses a non-reentrant model
  3164 ;;
  3165                           
  3166                           
  3167                           ;psect for function _Oscillator_Init
  3168  0117                     _Oscillator_Init:	
  3169                           
  3170                           ;SYST_Init.c: 24: OSCCON = 0x77;
  3171                           
  3172                           ;incstack = 0
  3173                           ; Regs used in _Oscillator_Init: [wreg+status,2]
  3174  0117  3077               	movlw	119
  3175  0118  1683               	bsf	3,5	;RP0=1, select bank1
  3176  0119  1303               	bcf	3,6	;RP1=0, select bank1
  3177  011A  008F               	movwf	15	;volatile
  3178                           
  3179                           ;SYST_Init.c: 25: OSCTUNE = 0x00;
  3180  011B  0190               	clrf	16	;volatile
  3181  011C  0008               	return
  3182  011D                     __end_of_Oscillator_Init:	
  3183                           
  3184                           	psect	text11
  3185  03DB                     __ptext11:	
  3186 ;; *************** function _Lcd_Init *****************
  3187 ;; Defined at:
  3188 ;;		line 62 in file "lcd_Config.c"
  3189 ;; Parameters:    Size  Location     Type
  3190 ;;		None
  3191 ;; Auto vars:     Size  Location     Type
  3192 ;;		None
  3193 ;; Return value:  Size  Location     Type
  3194 ;;                  1    wreg      void 
  3195 ;; Registers used:
  3196 ;;		wreg, status,2, status,0, pclath, cstack
  3197 ;; Tracked objects:
  3198 ;;		On entry : 0/0
  3199 ;;		On exit  : 0/0
  3200 ;;		Unchanged: 0/0
  3201 ;; Data sizes:     COMMON   BANK0   BANK1   BANK3   BANK2
  3202 ;;      Params:         0       0       0       0       0
  3203 ;;      Locals:         0       0       0       0       0
  3204 ;;      Temps:          0       2       0       0       0
  3205 ;;      Totals:         0       2       0       0       0
  3206 ;;Total ram usage:        2 bytes
  3207 ;; Hardware stack levels used:    1
  3208 ;; Hardware stack levels required when called:    3
  3209 ;; This function calls:
  3210 ;;		_Lcd_Cmd
  3211 ;;		_Lcd_Port
  3212 ;; This function is called by:
  3213 ;;		_system_Initialize
  3214 ;; This function uses a non-reentrant model
  3215 ;;
  3216                           
  3217                           
  3218                           ;psect for function _Lcd_Init
  3219  03DB                     _Lcd_Init:	
  3220                           
  3221                           ;lcd_Config.c: 63: Lcd_Port(0x00);
  3222                           
  3223                           ;incstack = 0
  3224                           ; Regs used in _Lcd_Init: [wreg+status,2+status,0+pclath+cstack]
  3225  03DB  3000               	movlw	0
  3226  03DC  120A  118A  215E  120A  118A  	fcall	_Lcd_Port
  3227                           
  3228                           ;lcd_Config.c: 64: _delay((unsigned long)((20)*(8000000UL/4000.0)));
  3229  03E1  3034               	movlw	52
  3230  03E2  1283               	bcf	3,5	;RP0=0, select bank0
  3231  03E3  1303               	bcf	3,6	;RP1=0, select bank0
  3232  03E4  00A5               	movwf	??_Lcd_Init+1
  3233  03E5  30F1               	movlw	241
  3234  03E6  00A4               	movwf	??_Lcd_Init
  3235  03E7                     u4867:	
  3236  03E7  0BA4               	decfsz	??_Lcd_Init,f
  3237  03E8  2BE7               	goto	u4867
  3238  03E9  0BA5               	decfsz	??_Lcd_Init+1,f
  3239  03EA  2BE7               	goto	u4867
  3240                           
  3241                           ;lcd_Config.c: 65: Lcd_Cmd(0x03);
  3242  03EB  3003               	movlw	3
  3243  03EC  120A  118A  218F  120A  118A  	fcall	_Lcd_Cmd
  3244                           
  3245                           ;lcd_Config.c: 66: _delay((unsigned long)((5)*(8000000UL/4000.0)));
  3246  03F1  300D               	movlw	13
  3247  03F2  1283               	bcf	3,5	;RP0=0, select bank0
  3248  03F3  1303               	bcf	3,6	;RP1=0, select bank0
  3249  03F4  00A5               	movwf	??_Lcd_Init+1
  3250  03F5  30FB               	movlw	251
  3251  03F6  00A4               	movwf	??_Lcd_Init
  3252  03F7                     u4877:	
  3253  03F7  0BA4               	decfsz	??_Lcd_Init,f
  3254  03F8  2BF7               	goto	u4877
  3255  03F9  0BA5               	decfsz	??_Lcd_Init+1,f
  3256  03FA  2BF7               	goto	u4877
  3257                           
  3258                           ;lcd_Config.c: 67: Lcd_Cmd(0x03);
  3259  03FB  3003               	movlw	3
  3260  03FC  120A  118A  218F  120A  118A  	fcall	_Lcd_Cmd
  3261                           
  3262                           ;lcd_Config.c: 68: _delay((unsigned long)((11)*(8000000UL/4000.0)));
  3263  0401  301D               	movlw	29
  3264  0402  1283               	bcf	3,5	;RP0=0, select bank0
  3265  0403  1303               	bcf	3,6	;RP1=0, select bank0
  3266  0404  00A5               	movwf	??_Lcd_Init+1
  3267  0405  3090               	movlw	144
  3268  0406  00A4               	movwf	??_Lcd_Init
  3269  0407                     u4887:	
  3270  0407  0BA4               	decfsz	??_Lcd_Init,f
  3271  0408  2C07               	goto	u4887
  3272  0409  0BA5               	decfsz	??_Lcd_Init+1,f
  3273  040A  2C07               	goto	u4887
  3274  040B  0000               	nop
  3275                           
  3276                           ;lcd_Config.c: 69: Lcd_Cmd(0x03);
  3277  040C  3003               	movlw	3
  3278  040D  120A  118A  218F  120A  118A  	fcall	_Lcd_Cmd
  3279                           
  3280                           ;lcd_Config.c: 71: Lcd_Cmd(0x02);
  3281  0412  3002               	movlw	2
  3282  0413  120A  118A  218F  120A  118A  	fcall	_Lcd_Cmd
  3283                           
  3284                           ;lcd_Config.c: 72: Lcd_Cmd(0x02);
  3285  0418  3002               	movlw	2
  3286  0419  120A  118A  218F  120A  118A  	fcall	_Lcd_Cmd
  3287                           
  3288                           ;lcd_Config.c: 73: Lcd_Cmd(0x08);
  3289  041E  3008               	movlw	8
  3290  041F  120A  118A  218F  120A  118A  	fcall	_Lcd_Cmd
  3291                           
  3292                           ;lcd_Config.c: 74: Lcd_Cmd(0x00);
  3293  0424  3000               	movlw	0
  3294  0425  120A  118A  218F  120A  118A  	fcall	_Lcd_Cmd
  3295                           
  3296                           ;lcd_Config.c: 75: Lcd_Cmd(0x0C);
  3297  042A  300C               	movlw	12
  3298  042B  120A  118A  218F  120A  118A  	fcall	_Lcd_Cmd
  3299                           
  3300                           ;lcd_Config.c: 76: Lcd_Cmd(0x00);
  3301  0430  3000               	movlw	0
  3302  0431  120A  118A  218F  120A  118A  	fcall	_Lcd_Cmd
  3303                           
  3304                           ;lcd_Config.c: 77: Lcd_Cmd(0x06);
  3305  0436  3006               	movlw	6
  3306  0437  120A  118A  218F   	fcall	_Lcd_Cmd
  3307  043A  0008               	return
  3308  043B                     __end_of_Lcd_Init:	
  3309                           
  3310                           	psect	text12
  3311  018F                     __ptext12:	
  3312 ;; *************** function _Lcd_Cmd *****************
  3313 ;; Defined at:
  3314 ;;		line 32 in file "lcd_Config.c"
  3315 ;; Parameters:    Size  Location     Type
  3316 ;;  a               1    wreg     unsigned char 
  3317 ;; Auto vars:     Size  Location     Type
  3318 ;;  a               1    3[BANK0 ] unsigned char 
  3319 ;; Return value:  Size  Location     Type
  3320 ;;                  1    wreg      void 
  3321 ;; Registers used:
  3322 ;;		wreg, status,2, status,0, pclath, cstack
  3323 ;; Tracked objects:
  3324 ;;		On entry : 0/0
  3325 ;;		On exit  : 0/0
  3326 ;;		Unchanged: 0/0
  3327 ;; Data sizes:     COMMON   BANK0   BANK1   BANK3   BANK2
  3328 ;;      Params:         0       0       0       0       0
  3329 ;;      Locals:         0       1       0       0       0
  3330 ;;      Temps:          0       2       0       0       0
  3331 ;;      Totals:         0       3       0       0       0
  3332 ;;Total ram usage:        3 bytes
  3333 ;; Hardware stack levels used:    1
  3334 ;; Hardware stack levels required when called:    2
  3335 ;; This function calls:
  3336 ;;		_Lcd_Port
  3337 ;; This function is called by:
  3338 ;;		_Lcd_Init
  3339 ;;		_Lcd_Clear
  3340 ;;		_Lcd_Set_Cursor
  3341 ;;		_Lcd_Shift_Right
  3342 ;;		_Lcd_Shift_Left
  3343 ;; This function uses a non-reentrant model
  3344 ;;
  3345                           
  3346                           
  3347                           ;psect for function _Lcd_Cmd
  3348  018F                     _Lcd_Cmd:	
  3349                           
  3350                           ;incstack = 0
  3351                           ; Regs used in _Lcd_Cmd: [wreg+status,2+status,0+pclath+cstack]
  3352                           ;Lcd_Cmd@a stored from wreg
  3353  018F  1283               	bcf	3,5	;RP0=0, select bank0
  3354  0190  1303               	bcf	3,6	;RP1=0, select bank0
  3355  0191  00A3               	movwf	Lcd_Cmd@a
  3356                           
  3357                           ;lcd_Config.c: 33: PORTBbits.RB5 = 0;
  3358  0192  1286               	bcf	6,5	;volatile
  3359                           
  3360                           ;lcd_Config.c: 34: Lcd_Port(a);
  3361  0193  0823               	movf	Lcd_Cmd@a,w
  3362  0194  120A  118A  215E  120A  118A  	fcall	_Lcd_Port
  3363                           
  3364                           ;lcd_Config.c: 35: PORTBbits.RB4 = 1;
  3365  0199  1283               	bcf	3,5	;RP0=0, select bank0
  3366  019A  1303               	bcf	3,6	;RP1=0, select bank0
  3367  019B  1606               	bsf	6,4	;volatile
  3368                           
  3369                           ;lcd_Config.c: 36: _delay((unsigned long)((4)*(8000000UL/4000.0)));
  3370  019C  300B               	movlw	11
  3371  019D  1283               	bcf	3,5	;RP0=0, select bank0
  3372  019E  1303               	bcf	3,6	;RP1=0, select bank0
  3373  019F  00A2               	movwf	??_Lcd_Cmd+1
  3374  01A0  3061               	movlw	97
  3375  01A1  00A1               	movwf	??_Lcd_Cmd
  3376  01A2                     u4897:	
  3377  01A2  0BA1               	decfsz	??_Lcd_Cmd,f
  3378  01A3  29A2               	goto	u4897
  3379  01A4  0BA2               	decfsz	??_Lcd_Cmd+1,f
  3380  01A5  29A2               	goto	u4897
  3381  01A6  29A7               	nop2
  3382                           
  3383                           ;lcd_Config.c: 37: PORTBbits.RB4 = 0;
  3384  01A7  1283               	bcf	3,5	;RP0=0, select bank0
  3385  01A8  1303               	bcf	3,6	;RP1=0, select bank0
  3386  01A9  1206               	bcf	6,4	;volatile
  3387  01AA  0008               	return
  3388  01AB                     __end_of_Lcd_Cmd:	
  3389                           
  3390                           	psect	text13
  3391  015E                     __ptext13:	
  3392 ;; *************** function _Lcd_Port *****************
  3393 ;; Defined at:
  3394 ;;		line 10 in file "lcd_Config.c"
  3395 ;; Parameters:    Size  Location     Type
  3396 ;;  a               1    wreg     unsigned char 
  3397 ;; Auto vars:     Size  Location     Type
  3398 ;;  a               1    0[BANK0 ] unsigned char 
  3399 ;; Return value:  Size  Location     Type
  3400 ;;                  1    wreg      void 
  3401 ;; Registers used:
  3402 ;;		wreg
  3403 ;; Tracked objects:
  3404 ;;		On entry : 0/0
  3405 ;;		On exit  : 0/0
  3406 ;;		Unchanged: 0/0
  3407 ;; Data sizes:     COMMON   BANK0   BANK1   BANK3   BANK2
  3408 ;;      Params:         0       0       0       0       0
  3409 ;;      Locals:         0       1       0       0       0
  3410 ;;      Temps:          0       0       0       0       0
  3411 ;;      Totals:         0       1       0       0       0
  3412 ;;Total ram usage:        1 bytes
  3413 ;; Hardware stack levels used:    1
  3414 ;; Hardware stack levels required when called:    1
  3415 ;; This function calls:
  3416 ;;		Nothing
  3417 ;; This function is called by:
  3418 ;;		_Lcd_Cmd
  3419 ;;		_Lcd_Init
  3420 ;;		_Lcd_Write_Char
  3421 ;; This function uses a non-reentrant model
  3422 ;;
  3423                           
  3424                           
  3425                           ;psect for function _Lcd_Port
  3426  015E                     _Lcd_Port:	
  3427                           
  3428                           ;incstack = 0
  3429                           ; Regs used in _Lcd_Port: [wreg]
  3430                           ;Lcd_Port@a stored from wreg
  3431  015E  1283               	bcf	3,5	;RP0=0, select bank0
  3432  015F  1303               	bcf	3,6	;RP1=0, select bank0
  3433  0160  00A0               	movwf	Lcd_Port@a
  3434                           
  3435                           ;lcd_Config.c: 11: if (a & 1)
  3436  0161  1C20               	btfss	Lcd_Port@a,0
  3437  0162  2965               	goto	l262
  3438                           
  3439                           ;lcd_Config.c: 12: PORTBbits.RB3 = 1;
  3440  0163  1586               	bsf	6,3	;volatile
  3441  0164  2966               	goto	l263
  3442  0165                     l262:	
  3443                           
  3444                           ;lcd_Config.c: 13: else
  3445                           ;lcd_Config.c: 14: PORTBbits.RB3 = 0;
  3446  0165  1186               	bcf	6,3	;volatile
  3447  0166                     l263:	
  3448                           
  3449                           ;lcd_Config.c: 16: if (a & 2)
  3450  0166  1CA0               	btfss	Lcd_Port@a,1
  3451  0167  296A               	goto	l264
  3452                           
  3453                           ;lcd_Config.c: 17: PORTBbits.RB2 = 1;
  3454  0168  1506               	bsf	6,2	;volatile
  3455  0169  296B               	goto	l265
  3456  016A                     l264:	
  3457                           
  3458                           ;lcd_Config.c: 18: else
  3459                           ;lcd_Config.c: 19: PORTBbits.RB2 = 0;
  3460  016A  1106               	bcf	6,2	;volatile
  3461  016B                     l265:	
  3462                           
  3463                           ;lcd_Config.c: 21: if (a & 4)
  3464  016B  1D20               	btfss	Lcd_Port@a,2
  3465  016C  296F               	goto	l266
  3466                           
  3467                           ;lcd_Config.c: 22: PORTBbits.RB1 = 1;
  3468  016D  1486               	bsf	6,1	;volatile
  3469  016E  2970               	goto	l267
  3470  016F                     l266:	
  3471                           
  3472                           ;lcd_Config.c: 23: else
  3473                           ;lcd_Config.c: 24: PORTBbits.RB1 = 0;
  3474  016F  1086               	bcf	6,1	;volatile
  3475  0170                     l267:	
  3476                           
  3477                           ;lcd_Config.c: 26: if (a & 8)
  3478  0170  1DA0               	btfss	Lcd_Port@a,3
  3479  0171  2974               	goto	l268
  3480                           
  3481                           ;lcd_Config.c: 27: PORTBbits.RB0 = 1;
  3482  0172  1406               	bsf	6,0	;volatile
  3483  0173  0008               	return
  3484  0174                     l268:	
  3485                           
  3486                           ;lcd_Config.c: 28: else
  3487                           ;lcd_Config.c: 29: PORTBbits.RB0 = 0;
  3488  0174  1006               	bcf	6,0	;volatile
  3489  0175  0008               	return
  3490  0176                     __end_of_Lcd_Port:	
  3491                           
  3492                           	psect	text14
  3493  0114                     __ptext14:	
  3494 ;; *************** function _Interrupt_Init *****************
  3495 ;; Defined at:
  3496 ;;		line 10 in file "interrupt_Init.c"
  3497 ;; Parameters:    Size  Location     Type
  3498 ;;		None
  3499 ;; Auto vars:     Size  Location     Type
  3500 ;;		None
  3501 ;; Return value:  Size  Location     Type
  3502 ;;                  1    wreg      void 
  3503 ;; Registers used:
  3504 ;;		None
  3505 ;; Tracked objects:
  3506 ;;		On entry : 0/0
  3507 ;;		On exit  : 0/0
  3508 ;;		Unchanged: 0/0
  3509 ;; Data sizes:     COMMON   BANK0   BANK1   BANK3   BANK2
  3510 ;;      Params:         0       0       0       0       0
  3511 ;;      Locals:         0       0       0       0       0
  3512 ;;      Temps:          0       0       0       0       0
  3513 ;;      Totals:         0       0       0       0       0
  3514 ;;Total ram usage:        0 bytes
  3515 ;; Hardware stack levels used:    1
  3516 ;; Hardware stack levels required when called:    1
  3517 ;; This function calls:
  3518 ;;		Nothing
  3519 ;; This function is called by:
  3520 ;;		_system_Initialize
  3521 ;; This function uses a non-reentrant model
  3522 ;;
  3523                           
  3524                           
  3525                           ;psect for function _Interrupt_Init
  3526  0114                     _Interrupt_Init:	
  3527                           
  3528                           ;interrupt_Init.c: 12: INTCONbits.GIE = 1;
  3529                           
  3530                           ;incstack = 0
  3531                           ; Regs used in _Interrupt_Init: []
  3532  0114  178B               	bsf	11,7	;volatile
  3533                           
  3534                           ;interrupt_Init.c: 13: INTCONbits.PEIE = 1;
  3535  0115  170B               	bsf	11,6	;volatile
  3536  0116  0008               	return
  3537  0117                     __end_of_Interrupt_Init:	
  3538                           
  3539                           	psect	text15
  3540  0176                     __ptext15:	
  3541 ;; *************** function _ADC_Init *****************
  3542 ;; Defined at:
  3543 ;;		line 13 in file "adc_Init.c"
  3544 ;; Parameters:    Size  Location     Type
  3545 ;;		None
  3546 ;; Auto vars:     Size  Location     Type
  3547 ;;		None
  3548 ;; Return value:  Size  Location     Type
  3549 ;;                  1    wreg      void 
  3550 ;; Registers used:
  3551 ;;		wreg, status,2, status,0
  3552 ;; Tracked objects:
  3553 ;;		On entry : 0/0
  3554 ;;		On exit  : 0/0
  3555 ;;		Unchanged: 0/0
  3556 ;; Data sizes:     COMMON   BANK0   BANK1   BANK3   BANK2
  3557 ;;      Params:         0       0       0       0       0
  3558 ;;      Locals:         0       0       0       0       0
  3559 ;;      Temps:          0       0       0       0       0
  3560 ;;      Totals:         0       0       0       0       0
  3561 ;;Total ram usage:        0 bytes
  3562 ;; Hardware stack levels used:    1
  3563 ;; Hardware stack levels required when called:    1
  3564 ;; This function calls:
  3565 ;;		Nothing
  3566 ;; This function is called by:
  3567 ;;		_system_Initialize
  3568 ;; This function uses a non-reentrant model
  3569 ;;
  3570                           
  3571                           
  3572                           ;psect for function _ADC_Init
  3573  0176                     _ADC_Init:	
  3574                           
  3575                           ;adc_Init.c: 14: ADCON0bits.ADCS = 0b10;
  3576                           
  3577                           ;incstack = 0
  3578                           ; Regs used in _ADC_Init: [wreg+status,2+status,0]
  3579  0176  1283               	bcf	3,5	;RP0=0, select bank0
  3580  0177  1303               	bcf	3,6	;RP1=0, select bank0
  3581  0178  081F               	movf	31,w	;volatile
  3582  0179  393F               	andlw	-193
  3583  017A  3880               	iorlw	128
  3584  017B  009F               	movwf	31	;volatile
  3585                           
  3586                           ;adc_Init.c: 15: ADCON0bits.CHS = 0x0000;
  3587  017C  30C3               	movlw	-61
  3588  017D  059F               	andwf	31,f	;volatile
  3589                           
  3590                           ;adc_Init.c: 16: ADCON0bits.GO_DONE = GO_DONE = 0;
  3591  017E  109F               	bcf	31,1	;volatile
  3592  017F  1C9F               	btfss	31,1	;volatile
  3593  0180  2985               	goto	u3550
  3594  0181  1283               	bcf	3,5	;RP0=0, select bank0
  3595  0182  1303               	bcf	3,6	;RP1=0, select bank0
  3596  0183  149F               	bsf	31,1	;volatile
  3597  0184  2988               	goto	l3250
  3598  0185                     u3550:	
  3599  0185  1283               	bcf	3,5	;RP0=0, select bank0
  3600  0186  1303               	bcf	3,6	;RP1=0, select bank0
  3601  0187  109F               	bcf	31,1	;volatile
  3602  0188                     l3250:	
  3603                           
  3604                           ;adc_Init.c: 17: ADCON0bits.ADON = 1;
  3605  0188  141F               	bsf	31,0	;volatile
  3606                           
  3607                           ;adc_Init.c: 19: ADCON1bits.ADFM = 1;
  3608  0189  1683               	bsf	3,5	;RP0=1, select bank1
  3609  018A  1303               	bcf	3,6	;RP1=0, select bank1
  3610  018B  179F               	bsf	31,7	;volatile
  3611                           
  3612                           ;adc_Init.c: 20: ADCON1bits.VCFG0 = 0b00;
  3613  018C  121F               	bcf	31,4	;volatile
  3614                           
  3615                           ;adc_Init.c: 21: ADCON1bits.VCFG1 = 0b00;
  3616  018D  129F               	bcf	31,5	;volatile
  3617  018E  0008               	return
  3618  018F                     __end_of_ADC_Init:	
  3619                           
  3620                           	psect	text16
  3621  0666                     __ptext16:	
  3622 ;; *************** function _led_Demo *****************
  3623 ;; Defined at:
  3624 ;;		line 51 in file "main.c"
  3625 ;; Parameters:    Size  Location     Type
  3626 ;;  speed           1    wreg     unsigned char 
  3627 ;; Auto vars:     Size  Location     Type
  3628 ;;  speed           1   50[BANK0 ] unsigned char 
  3629 ;; Return value:  Size  Location     Type
  3630 ;;                  1    wreg      void 
  3631 ;; Registers used:
  3632 ;;		wreg, status,2, status,0, pclath, cstack
  3633 ;; Tracked objects:
  3634 ;;		On entry : 0/0
  3635 ;;		On exit  : 0/0
  3636 ;;		Unchanged: 0/0
  3637 ;; Data sizes:     COMMON   BANK0   BANK1   BANK3   BANK2
  3638 ;;      Params:         0       0       0       0       0
  3639 ;;      Locals:         0       1       0       0       0
  3640 ;;      Temps:          0       4       0       0       0
  3641 ;;      Totals:         0       5       0       0       0
  3642 ;;Total ram usage:        5 bytes
  3643 ;; Hardware stack levels used:    1
  3644 ;; Hardware stack levels required when called:    3
  3645 ;; This function calls:
  3646 ;;		___ftmul
  3647 ;;		___fttol
  3648 ;;		___lbtoft
  3649 ;;		_eeprom_Write
  3650 ;; This function is called by:
  3651 ;;		_main
  3652 ;; This function uses a non-reentrant model
  3653 ;;
  3654                           
  3655                           
  3656                           ;psect for function _led_Demo
  3657  0666                     _led_Demo:	
  3658                           
  3659                           ;incstack = 0
  3660                           ; Regs used in _led_Demo: [wreg+status,2+status,0+pclath+cstack]
  3661                           ;led_Demo@speed stored from wreg
  3662  0666  1283               	bcf	3,5	;RP0=0, select bank0
  3663  0667  1303               	bcf	3,6	;RP1=0, select bank0
  3664  0668  00D2               	movwf	led_Demo@speed
  3665                           
  3666                           ;main.c: 52: _delay((unsigned long)((speed)*(8000000UL/4000.0)));
  3667  0669  0852               	movf	led_Demo@speed,w
  3668  066A  120A  118A  21AB  120A  118A  	fcall	___lbtoft
  3669  066F  1283               	bcf	3,5	;RP0=0, select bank0
  3670  0670  1303               	bcf	3,6	;RP1=0, select bank0
  3671  0671  0828               	movf	?___lbtoft,w
  3672  0672  00B3               	movwf	___ftmul@f2
  3673  0673  0829               	movf	?___lbtoft+1,w
  3674  0674  00B4               	movwf	___ftmul@f2+1
  3675  0675  082A               	movf	?___lbtoft+2,w
  3676  0676  00B5               	movwf	___ftmul@f2+2
  3677  0677  3000               	movlw	0
  3678  0678  00B0               	movwf	___ftmul@f1
  3679  0679  30FA               	movlw	250
  3680  067A  00B1               	movwf	___ftmul@f1+1
  3681  067B  3044               	movlw	68
  3682  067C  00B2               	movwf	___ftmul@f1+2
  3683  067D  120A  118A  26FD  120A  118A  	fcall	___ftmul
  3684  0682  1283               	bcf	3,5	;RP0=0, select bank0
  3685  0683  1303               	bcf	3,6	;RP1=0, select bank0
  3686  0684  0830               	movf	?___ftmul,w
  3687  0685  00C0               	movwf	___fttol@f1
  3688  0686  0831               	movf	?___ftmul+1,w
  3689  0687  00C1               	movwf	___fttol@f1+1
  3690  0688  0832               	movf	?___ftmul+2,w
  3691  0689  00C2               	movwf	___fttol@f1+2
  3692  068A  120A  118A  25D8  120A  118A  	fcall	___fttol
  3693  068F  1283               	bcf	3,5	;RP0=0, select bank0
  3694  0690  1303               	bcf	3,6	;RP1=0, select bank0
  3695  0691  0840               	movf	?___fttol,w
  3696  0692  00CE               	movwf	??_led_Demo
  3697  0693  0841               	movf	?___fttol+1,w
  3698  0694  00CF               	movwf	??_led_Demo+1
  3699  0695  0842               	movf	?___fttol+2,w
  3700  0696  00D0               	movwf	??_led_Demo+2
  3701  0697  0843               	movf	?___fttol+3,w
  3702  0698  00D1               	movwf	??_led_Demo+3
  3703                           
  3704                           ;main.c: 53: PORTD = PORTD << shift;
  3705  0699  1283               	bcf	3,5	;RP0=0, select bank0
  3706  069A  1303               	bcf	3,6	;RP1=0, select bank0
  3707  069B  0808               	movf	8,w	;volatile
  3708  069C  00CE               	movwf	??_led_Demo
  3709  069D  0A6B               	incf	_shift,w
  3710  069E  2EA1               	goto	u3804
  3711  069F                     u3805:	
  3712  069F  1003               	clrc
  3713  06A0  0DCE               	rlf	??_led_Demo,f
  3714  06A1                     u3804:	
  3715  06A1  3EFF               	addlw	-1
  3716  06A2  1D03               	skipz
  3717  06A3  2E9F               	goto	u3805
  3718  06A4  084E               	movf	??_led_Demo,w
  3719  06A5  0088               	movwf	8	;volatile
  3720                           
  3721                           ;main.c: 54: eeprom_Write(PORTD, 0x05);
  3722  06A6  3005               	movlw	5
  3723  06A7  00CE               	movwf	??_led_Demo
  3724  06A8  084E               	movf	??_led_Demo,w
  3725  06A9  00A1               	movwf	eeprom_Write@iAddress
  3726  06AA  0808               	movf	8,w	;volatile
  3727  06AB  120A  118A  2302  120A  118A  	fcall	_eeprom_Write
  3728                           
  3729                           ;main.c: 55: if (PORTD == 0x80) {
  3730  06B0  3080               	movlw	128
  3731  06B1  1283               	bcf	3,5	;RP0=0, select bank0
  3732  06B2  1303               	bcf	3,6	;RP1=0, select bank0
  3733  06B3  0608               	xorwf	8,w	;volatile
  3734  06B4  1D03               	btfss	3,2
  3735  06B5  2EE9               	goto	l3392
  3736                           
  3737                           ;main.c: 56: _delay((unsigned long)((speed)*(8000000UL/4000.0)));
  3738  06B6  0852               	movf	led_Demo@speed,w
  3739  06B7  120A  118A  21AB  120A  118A  	fcall	___lbtoft
  3740  06BC  1283               	bcf	3,5	;RP0=0, select bank0
  3741  06BD  1303               	bcf	3,6	;RP1=0, select bank0
  3742  06BE  0828               	movf	?___lbtoft,w
  3743  06BF  00B3               	movwf	___ftmul@f2
  3744  06C0  0829               	movf	?___lbtoft+1,w
  3745  06C1  00B4               	movwf	___ftmul@f2+1
  3746  06C2  082A               	movf	?___lbtoft+2,w
  3747  06C3  00B5               	movwf	___ftmul@f2+2
  3748  06C4  3000               	movlw	0
  3749  06C5  00B0               	movwf	___ftmul@f1
  3750  06C6  30FA               	movlw	250
  3751  06C7  00B1               	movwf	___ftmul@f1+1
  3752  06C8  3044               	movlw	68
  3753  06C9  00B2               	movwf	___ftmul@f1+2
  3754  06CA  120A  118A  26FD  120A  118A  	fcall	___ftmul
  3755  06CF  1283               	bcf	3,5	;RP0=0, select bank0
  3756  06D0  1303               	bcf	3,6	;RP1=0, select bank0
  3757  06D1  0830               	movf	?___ftmul,w
  3758  06D2  00C0               	movwf	___fttol@f1
  3759  06D3  0831               	movf	?___ftmul+1,w
  3760  06D4  00C1               	movwf	___fttol@f1+1
  3761  06D5  0832               	movf	?___ftmul+2,w
  3762  06D6  00C2               	movwf	___fttol@f1+2
  3763  06D7  120A  118A  25D8   	fcall	___fttol
  3764  06DA  1283               	bcf	3,5	;RP0=0, select bank0
  3765  06DB  1303               	bcf	3,6	;RP1=0, select bank0
  3766  06DC  0840               	movf	?___fttol,w
  3767  06DD  00CE               	movwf	??_led_Demo
  3768  06DE  0841               	movf	?___fttol+1,w
  3769  06DF  00CF               	movwf	??_led_Demo+1
  3770  06E0  0842               	movf	?___fttol+2,w
  3771  06E1  00D0               	movwf	??_led_Demo+2
  3772  06E2  0843               	movf	?___fttol+3,w
  3773  06E3  00D1               	movwf	??_led_Demo+3
  3774                           
  3775                           ;main.c: 57: PORTD = 0x01;
  3776  06E4  3001               	movlw	1
  3777  06E5  1283               	bcf	3,5	;RP0=0, select bank0
  3778  06E6  1303               	bcf	3,6	;RP1=0, select bank0
  3779  06E7  0088               	movwf	8	;volatile
  3780                           
  3781                           ;main.c: 58: }else if (increaseTime_Enabled){
  3782  06E8  0008               	return
  3783  06E9                     l3392:	
  3784  06E9  085A               	movf	_increaseTime_Enabled,w
  3785  06EA  1903               	btfsc	3,2
  3786  06EB  0008               	return
  3787                           
  3788                           ;main.c: 59: shitf_Speed = shitf_Speed + 0x50;
  3789  06EC  085B               	movf	_shitf_Speed,w
  3790  06ED  3E50               	addlw	80
  3791  06EE  00CE               	movwf	??_led_Demo
  3792  06EF  084E               	movf	??_led_Demo,w
  3793  06F0  00DB               	movwf	_shitf_Speed
  3794                           
  3795                           ;main.c: 60: eeprom_Write(shitf_Speed, 0x04);
  3796  06F1  3004               	movlw	4
  3797  06F2  00CE               	movwf	??_led_Demo
  3798  06F3  084E               	movf	??_led_Demo,w
  3799  06F4  00A1               	movwf	eeprom_Write@iAddress
  3800  06F5  085B               	movf	_shitf_Speed,w
  3801  06F6  120A  118A  2302   	fcall	_eeprom_Write
  3802                           
  3803                           ;main.c: 61: increaseTime_Enabled = 0;
  3804  06F9  1283               	bcf	3,5	;RP0=0, select bank0
  3805  06FA  1303               	bcf	3,6	;RP1=0, select bank0
  3806  06FB  01DA               	clrf	_increaseTime_Enabled
  3807  06FC  0008               	return
  3808  06FD                     __end_of_led_Demo:	
  3809                           
  3810                           	psect	text17
  3811  0302                     __ptext17:	
  3812 ;; *************** function _eeprom_Write *****************
  3813 ;; Defined at:
  3814 ;;		line 10 in file "_25LC160B_EEPROM.c"
  3815 ;; Parameters:    Size  Location     Type
  3816 ;;  iData           1    wreg     unsigned char 
  3817 ;;  iAddress        1    1[BANK0 ] unsigned char 
  3818 ;; Auto vars:     Size  Location     Type
  3819 ;;  iData           1    4[BANK0 ] unsigned char 
  3820 ;; Return value:  Size  Location     Type
  3821 ;;                  1    wreg      void 
  3822 ;; Registers used:
  3823 ;;		wreg, status,2, status,0, pclath, cstack
  3824 ;; Tracked objects:
  3825 ;;		On entry : 0/0
  3826 ;;		On exit  : 0/0
  3827 ;;		Unchanged: 0/0
  3828 ;; Data sizes:     COMMON   BANK0   BANK1   BANK3   BANK2
  3829 ;;      Params:         0       1       0       0       0
  3830 ;;      Locals:         0       1       0       0       0
  3831 ;;      Temps:          0       2       0       0       0
  3832 ;;      Totals:         0       4       0       0       0
  3833 ;;Total ram usage:        4 bytes
  3834 ;; Hardware stack levels used:    1
  3835 ;; Hardware stack levels required when called:    2
  3836 ;; This function calls:
  3837 ;;		_SPI_MasterTransmit
  3838 ;; This function is called by:
  3839 ;;		_main
  3840 ;;		_led_Demo
  3841 ;; This function uses a non-reentrant model
  3842 ;;
  3843                           
  3844                           
  3845                           ;psect for function _eeprom_Write
  3846  0302                     _eeprom_Write:	
  3847                           
  3848                           ;incstack = 0
  3849                           ; Regs used in _eeprom_Write: [wreg+status,2+status,0+pclath+cstack]
  3850                           ;eeprom_Write@iData stored from wreg
  3851  0302  1283               	bcf	3,5	;RP0=0, select bank0
  3852  0303  1303               	bcf	3,6	;RP1=0, select bank0
  3853  0304  00A4               	movwf	eeprom_Write@iData
  3854                           
  3855                           ;_25LC160B_EEPROM.c: 12: PORTAbits.RA5 = 0;
  3856  0305  1285               	bcf	5,5	;volatile
  3857                           
  3858                           ;_25LC160B_EEPROM.c: 13: SPI_MasterTransmit(0x06);
  3859  0306  3006               	movlw	6
  3860  0307  120A  118A  211D  120A  118A  	fcall	_SPI_MasterTransmit
  3861                           
  3862                           ;_25LC160B_EEPROM.c: 14: PORTAbits.RA5 = 1;
  3863  030C  1283               	bcf	3,5	;RP0=0, select bank0
  3864  030D  1303               	bcf	3,6	;RP1=0, select bank0
  3865  030E  1685               	bsf	5,5	;volatile
  3866                           
  3867                           ;_25LC160B_EEPROM.c: 15: _delay((unsigned long)((2)*(8000000UL/4000.0)));
  3868  030F  3006               	movlw	6
  3869  0310  1283               	bcf	3,5	;RP0=0, select bank0
  3870  0311  1303               	bcf	3,6	;RP1=0, select bank0
  3871  0312  00A3               	movwf	??_eeprom_Write+1
  3872  0313  302F               	movlw	47
  3873  0314  00A2               	movwf	??_eeprom_Write
  3874  0315                     u4907:	
  3875  0315  0BA2               	decfsz	??_eeprom_Write,f
  3876  0316  2B15               	goto	u4907
  3877  0317  0BA3               	decfsz	??_eeprom_Write+1,f
  3878  0318  2B15               	goto	u4907
  3879  0319  2B1A               	nop2
  3880                           
  3881                           ;_25LC160B_EEPROM.c: 17: PORTAbits.RA5 = 0;
  3882  031A  1283               	bcf	3,5	;RP0=0, select bank0
  3883  031B  1303               	bcf	3,6	;RP1=0, select bank0
  3884  031C  1285               	bcf	5,5	;volatile
  3885                           
  3886                           ;_25LC160B_EEPROM.c: 18: SPI_MasterTransmit(0x02);
  3887  031D  3002               	movlw	2
  3888  031E  120A  118A  211D  120A  118A  	fcall	_SPI_MasterTransmit
  3889                           
  3890                           ;_25LC160B_EEPROM.c: 19: SPI_MasterTransmit(iAddress>>8);
  3891  0323  3000               	movlw	0
  3892  0324  120A  118A  211D  120A  118A  	fcall	_SPI_MasterTransmit
  3893                           
  3894                           ;_25LC160B_EEPROM.c: 20: SPI_MasterTransmit(iAddress);
  3895  0329  1283               	bcf	3,5	;RP0=0, select bank0
  3896  032A  1303               	bcf	3,6	;RP1=0, select bank0
  3897  032B  0821               	movf	eeprom_Write@iAddress,w
  3898  032C  120A  118A  211D  120A  118A  	fcall	_SPI_MasterTransmit
  3899                           
  3900                           ;_25LC160B_EEPROM.c: 21: SPI_MasterTransmit(iData);
  3901  0331  1283               	bcf	3,5	;RP0=0, select bank0
  3902  0332  1303               	bcf	3,6	;RP1=0, select bank0
  3903  0333  0824               	movf	eeprom_Write@iData,w
  3904  0334  120A  118A  211D  120A  118A  	fcall	_SPI_MasterTransmit
  3905                           
  3906                           ;_25LC160B_EEPROM.c: 22: PORTAbits.RA5 = 1;
  3907  0339  1283               	bcf	3,5	;RP0=0, select bank0
  3908  033A  1303               	bcf	3,6	;RP1=0, select bank0
  3909  033B  1685               	bsf	5,5	;volatile
  3910                           
  3911                           ;_25LC160B_EEPROM.c: 23: _delay((unsigned long)((5)*(8000000UL/4000.0)));
  3912  033C  300D               	movlw	13
  3913  033D  1283               	bcf	3,5	;RP0=0, select bank0
  3914  033E  1303               	bcf	3,6	;RP1=0, select bank0
  3915  033F  00A3               	movwf	??_eeprom_Write+1
  3916  0340  30FB               	movlw	251
  3917  0341  00A2               	movwf	??_eeprom_Write
  3918  0342                     u4917:	
  3919  0342  0BA2               	decfsz	??_eeprom_Write,f
  3920  0343  2B42               	goto	u4917
  3921  0344  0BA3               	decfsz	??_eeprom_Write+1,f
  3922  0345  2B42               	goto	u4917
  3923  0346  0008               	return
  3924  0347                     __end_of_eeprom_Write:	
  3925                           
  3926                           	psect	text18
  3927  01AB                     __ptext18:	
  3928 ;; *************** function ___lbtoft *****************
  3929 ;; Defined at:
  3930 ;;		line 27 in file "C:\Program Files (x86)\Microchip\xc8\v1.45\sources\common\lbtoft.c"
  3931 ;; Parameters:    Size  Location     Type
  3932 ;;  c               1    wreg     unsigned char 
  3933 ;; Auto vars:     Size  Location     Type
  3934 ;;  c               1   15[BANK0 ] unsigned char 
  3935 ;; Return value:  Size  Location     Type
  3936 ;;                  3    8[BANK0 ] float 
  3937 ;; Registers used:
  3938 ;;		wreg, status,2, status,0, pclath, cstack
  3939 ;; Tracked objects:
  3940 ;;		On entry : 0/0
  3941 ;;		On exit  : 0/0
  3942 ;;		Unchanged: 0/0
  3943 ;; Data sizes:     COMMON   BANK0   BANK1   BANK3   BANK2
  3944 ;;      Params:         0       3       0       0       0
  3945 ;;      Locals:         0       1       0       0       0
  3946 ;;      Temps:          0       4       0       0       0
  3947 ;;      Totals:         0       8       0       0       0
  3948 ;;Total ram usage:        8 bytes
  3949 ;; Hardware stack levels used:    1
  3950 ;; Hardware stack levels required when called:    2
  3951 ;; This function calls:
  3952 ;;		___ftpack
  3953 ;; This function is called by:
  3954 ;;		_led_Demo
  3955 ;;		_temp_Measurement
  3956 ;; This function uses a non-reentrant model
  3957 ;;
  3958                           
  3959                           
  3960                           ;psect for function ___lbtoft
  3961  01AB                     ___lbtoft:	
  3962                           
  3963                           ;incstack = 0
  3964                           ; Regs used in ___lbtoft: [wreg+status,2+status,0+pclath+cstack]
  3965                           ;___lbtoft@c stored from wreg
  3966  01AB  1283               	bcf	3,5	;RP0=0, select bank0
  3967  01AC  1303               	bcf	3,6	;RP1=0, select bank0
  3968  01AD  00AF               	movwf	___lbtoft@c
  3969  01AE  082F               	movf	___lbtoft@c,w
  3970  01AF  00AB               	movwf	??___lbtoft
  3971  01B0  01AC               	clrf	??___lbtoft+1
  3972  01B1  01AD               	clrf	??___lbtoft+2
  3973  01B2  082B               	movf	??___lbtoft,w
  3974  01B3  00A0               	movwf	___ftpack@arg
  3975  01B4  082C               	movf	??___lbtoft+1,w
  3976  01B5  00A1               	movwf	___ftpack@arg+1
  3977  01B6  082D               	movf	??___lbtoft+2,w
  3978  01B7  00A2               	movwf	___ftpack@arg+2
  3979  01B8  308E               	movlw	142
  3980  01B9  00AE               	movwf	??___lbtoft+3
  3981  01BA  082E               	movf	??___lbtoft+3,w
  3982  01BB  00A3               	movwf	___ftpack@exp
  3983  01BC  01A4               	clrf	___ftpack@sign
  3984  01BD  120A  118A  24FB   	fcall	___ftpack
  3985  01C0  1283               	bcf	3,5	;RP0=0, select bank0
  3986  01C1  1303               	bcf	3,6	;RP1=0, select bank0
  3987  01C2  0820               	movf	?___ftpack,w
  3988  01C3  00A8               	movwf	?___lbtoft
  3989  01C4  0821               	movf	?___ftpack+1,w
  3990  01C5  00A9               	movwf	?___lbtoft+1
  3991  01C6  0822               	movf	?___ftpack+2,w
  3992  01C7  00AA               	movwf	?___lbtoft+2
  3993  01C8  0008               	return
  3994  01C9                     __end_of___lbtoft:	
  3995                           
  3996                           	psect	text19
  3997  05D8                     __ptext19:	
  3998 ;; *************** function ___fttol *****************
  3999 ;; Defined at:
  4000 ;;		line 44 in file "C:\Program Files (x86)\Microchip\xc8\v1.45\sources\common\fttol.c"
  4001 ;; Parameters:    Size  Location     Type
  4002 ;;  f1              3   32[BANK0 ] float 
  4003 ;; Auto vars:     Size  Location     Type
  4004 ;;  lval            4   41[BANK0 ] unsigned long 
  4005 ;;  exp1            1   45[BANK0 ] unsigned char 
  4006 ;;  sign1           1   40[BANK0 ] unsigned char 
  4007 ;; Return value:  Size  Location     Type
  4008 ;;                  4   32[BANK0 ] long 
  4009 ;; Registers used:
  4010 ;;		wreg, status,2, status,0
  4011 ;; Tracked objects:
  4012 ;;		On entry : 0/0
  4013 ;;		On exit  : 0/0
  4014 ;;		Unchanged: 0/0
  4015 ;; Data sizes:     COMMON   BANK0   BANK1   BANK3   BANK2
  4016 ;;      Params:         0       4       0       0       0
  4017 ;;      Locals:         0       6       0       0       0
  4018 ;;      Temps:          0       4       0       0       0
  4019 ;;      Totals:         0      14       0       0       0
  4020 ;;Total ram usage:       14 bytes
  4021 ;; Hardware stack levels used:    1
  4022 ;; Hardware stack levels required when called:    1
  4023 ;; This function calls:
  4024 ;;		Nothing
  4025 ;; This function is called by:
  4026 ;;		_led_Demo
  4027 ;;		_sprintf
  4028 ;; This function uses a non-reentrant model
  4029 ;;
  4030                           
  4031                           
  4032                           ;psect for function ___fttol
  4033  05D8                     ___fttol:	
  4034                           
  4035                           ;incstack = 0
  4036                           ; Regs used in ___fttol: [wreg+status,2+status,0]
  4037  05D8  1283               	bcf	3,5	;RP0=0, select bank0
  4038  05D9  1303               	bcf	3,6	;RP1=0, select bank0
  4039  05DA  0840               	movf	___fttol@f1,w
  4040  05DB  00C4               	movwf	??___fttol
  4041  05DC  0841               	movf	___fttol@f1+1,w
  4042  05DD  00C5               	movwf	??___fttol+1
  4043  05DE  0842               	movf	___fttol@f1+2,w
  4044  05DF  00C6               	movwf	??___fttol+2
  4045  05E0  1003               	clrc
  4046  05E1  0D45               	rlf	??___fttol+1,w
  4047  05E2  0D46               	rlf	??___fttol+2,w
  4048  05E3  00C7               	movwf	??___fttol+3
  4049  05E4  0847               	movf	??___fttol+3,w
  4050  05E5  00CD               	movwf	___fttol@exp1
  4051  05E6  084D               	movf	___fttol@exp1,w
  4052  05E7  1D03               	btfss	3,2
  4053  05E8  2DF2               	goto	l2168
  4054  05E9  3000               	movlw	0
  4055  05EA  00C3               	movwf	?___fttol+3
  4056  05EB  3000               	movlw	0
  4057  05EC  00C2               	movwf	?___fttol+2
  4058  05ED  3000               	movlw	0
  4059  05EE  00C1               	movwf	?___fttol+1
  4060  05EF  3000               	movlw	0
  4061  05F0  00C0               	movwf	?___fttol
  4062  05F1  0008               	return
  4063  05F2                     l2168:	
  4064  05F2  0840               	movf	___fttol@f1,w
  4065  05F3  00C4               	movwf	??___fttol
  4066  05F4  0841               	movf	___fttol@f1+1,w
  4067  05F5  00C5               	movwf	??___fttol+1
  4068  05F6  0842               	movf	___fttol@f1+2,w
  4069  05F7  00C6               	movwf	??___fttol+2
  4070  05F8  3017               	movlw	23
  4071  05F9                     u1495:	
  4072  05F9  1003               	clrc
  4073  05FA  0CC6               	rrf	??___fttol+2,f
  4074  05FB  0CC5               	rrf	??___fttol+1,f
  4075  05FC  0CC4               	rrf	??___fttol,f
  4076  05FD  3EFF               	addlw	-1
  4077  05FE  1D03               	skipz
  4078  05FF  2DF9               	goto	u1495
  4079  0600  0844               	movf	??___fttol,w
  4080  0601  00C7               	movwf	??___fttol+3
  4081  0602  0847               	movf	??___fttol+3,w
  4082  0603  00C8               	movwf	___fttol@sign1
  4083  0604  17C1               	bsf	___fttol@f1+1,7
  4084  0605  30FF               	movlw	255
  4085  0606  05C0               	andwf	___fttol@f1,f
  4086  0607  30FF               	movlw	255
  4087  0608  05C1               	andwf	___fttol@f1+1,f
  4088  0609  3000               	movlw	0
  4089  060A  05C2               	andwf	___fttol@f1+2,f
  4090  060B  0840               	movf	___fttol@f1,w
  4091  060C  00C9               	movwf	___fttol@lval
  4092  060D  0841               	movf	___fttol@f1+1,w
  4093  060E  00CA               	movwf	___fttol@lval+1
  4094  060F  0842               	movf	___fttol@f1+2,w
  4095  0610  00CB               	movwf	___fttol@lval+2
  4096  0611  01CC               	clrf	___fttol@lval+3
  4097  0612  308E               	movlw	142
  4098  0613  02CD               	subwf	___fttol@exp1,f
  4099  0614  1FCD               	btfss	___fttol@exp1,7
  4100  0615  2E34               	goto	l2188
  4101  0616  084D               	movf	___fttol@exp1,w
  4102  0617  3A80               	xorlw	128
  4103  0618  3E8F               	addlw	143
  4104  0619  1803               	skipnc
  4105  061A  2E24               	goto	l2186
  4106  061B  3000               	movlw	0
  4107  061C  00C3               	movwf	?___fttol+3
  4108  061D  3000               	movlw	0
  4109  061E  00C2               	movwf	?___fttol+2
  4110  061F  3000               	movlw	0
  4111  0620  00C1               	movwf	?___fttol+1
  4112  0621  3000               	movlw	0
  4113  0622  00C0               	movwf	?___fttol
  4114  0623  0008               	return
  4115  0624                     l2186:	
  4116  0624  3001               	movlw	1
  4117  0625                     u1525:	
  4118  0625  1003               	clrc
  4119  0626  0CCC               	rrf	___fttol@lval+3,f
  4120  0627  0CCB               	rrf	___fttol@lval+2,f
  4121  0628  0CCA               	rrf	___fttol@lval+1,f
  4122  0629  0CC9               	rrf	___fttol@lval,f
  4123  062A  3EFF               	addlw	-1
  4124  062B  1D03               	skipz
  4125  062C  2E25               	goto	u1525
  4126  062D  3001               	movlw	1
  4127  062E  00C4               	movwf	??___fttol
  4128  062F  0844               	movf	??___fttol,w
  4129  0630  07CD               	addwf	___fttol@exp1,f
  4130  0631  1903               	btfsc	3,2
  4131  0632  2E4F               	goto	l2196
  4132  0633  2E24               	goto	l2186
  4133  0634                     l2188:	
  4134  0634  3018               	movlw	24
  4135  0635  024D               	subwf	___fttol@exp1,w
  4136  0636  1C03               	skipc
  4137  0637  2E4C               	goto	l1127
  4138  0638  3000               	movlw	0
  4139  0639  00C3               	movwf	?___fttol+3
  4140  063A  3000               	movlw	0
  4141  063B  00C2               	movwf	?___fttol+2
  4142  063C  3000               	movlw	0
  4143  063D  00C1               	movwf	?___fttol+1
  4144  063E  3000               	movlw	0
  4145  063F  00C0               	movwf	?___fttol
  4146  0640  0008               	return
  4147  0641                     l2194:	
  4148  0641  3001               	movlw	1
  4149  0642  00C4               	movwf	??___fttol
  4150  0643                     u1555:	
  4151  0643  1003               	clrc
  4152  0644  0DC9               	rlf	___fttol@lval,f
  4153  0645  0DCA               	rlf	___fttol@lval+1,f
  4154  0646  0DCB               	rlf	___fttol@lval+2,f
  4155  0647  0DCC               	rlf	___fttol@lval+3,f
  4156  0648  0BC4               	decfsz	??___fttol,f
  4157  0649  2E43               	goto	u1555
  4158  064A  3001               	movlw	1
  4159  064B  02CD               	subwf	___fttol@exp1,f
  4160  064C                     l1127:	
  4161  064C  084D               	movf	___fttol@exp1,w
  4162  064D  1D03               	btfss	3,2
  4163  064E  2E41               	goto	l2194
  4164  064F                     l2196:	
  4165  064F  0848               	movf	___fttol@sign1,w
  4166  0650  1903               	btfsc	3,2
  4167  0651  2E5D               	goto	l2200
  4168  0652  09C9               	comf	___fttol@lval,f
  4169  0653  09CA               	comf	___fttol@lval+1,f
  4170  0654  09CB               	comf	___fttol@lval+2,f
  4171  0655  09CC               	comf	___fttol@lval+3,f
  4172  0656  0AC9               	incf	___fttol@lval,f
  4173  0657  1903               	skipnz
  4174  0658  0ACA               	incf	___fttol@lval+1,f
  4175  0659  1903               	skipnz
  4176  065A  0ACB               	incf	___fttol@lval+2,f
  4177  065B  1903               	skipnz
  4178  065C  0ACC               	incf	___fttol@lval+3,f
  4179  065D                     l2200:	
  4180  065D  084C               	movf	___fttol@lval+3,w
  4181  065E  00C3               	movwf	?___fttol+3
  4182  065F  084B               	movf	___fttol@lval+2,w
  4183  0660  00C2               	movwf	?___fttol+2
  4184  0661  084A               	movf	___fttol@lval+1,w
  4185  0662  00C1               	movwf	?___fttol+1
  4186  0663  0849               	movf	___fttol@lval,w
  4187  0664  00C0               	movwf	?___fttol
  4188  0665  0008               	return
  4189  0666                     __end_of___fttol:	
  4190                           
  4191                           	psect	text20
  4192  06FD                     __ptext20:	
  4193 ;; *************** function ___ftmul *****************
  4194 ;; Defined at:
  4195 ;;		line 62 in file "C:\Program Files (x86)\Microchip\xc8\v1.45\sources\common\ftmul.c"
  4196 ;; Parameters:    Size  Location     Type
  4197 ;;  f1              3   16[BANK0 ] float 
  4198 ;;  f2              3   19[BANK0 ] float 
  4199 ;; Auto vars:     Size  Location     Type
  4200 ;;  f3_as_produc    3   27[BANK0 ] unsigned um
  4201 ;;  sign            1   31[BANK0 ] unsigned char 
  4202 ;;  cntr            1   30[BANK0 ] unsigned char 
  4203 ;;  exp             1   26[BANK0 ] unsigned char 
  4204 ;; Return value:  Size  Location     Type
  4205 ;;                  3   16[BANK0 ] float 
  4206 ;; Registers used:
  4207 ;;		wreg, status,2, status,0, pclath, cstack
  4208 ;; Tracked objects:
  4209 ;;		On entry : 0/0
  4210 ;;		On exit  : 0/0
  4211 ;;		Unchanged: 0/0
  4212 ;; Data sizes:     COMMON   BANK0   BANK1   BANK3   BANK2
  4213 ;;      Params:         0       6       0       0       0
  4214 ;;      Locals:         0       6       0       0       0
  4215 ;;      Temps:          0       4       0       0       0
  4216 ;;      Totals:         0      16       0       0       0
  4217 ;;Total ram usage:       16 bytes
  4218 ;; Hardware stack levels used:    1
  4219 ;; Hardware stack levels required when called:    2
  4220 ;; This function calls:
  4221 ;;		___ftpack
  4222 ;; This function is called by:
  4223 ;;		_led_Demo
  4224 ;;		_temp_Measurement
  4225 ;;		_sprintf
  4226 ;;		_scale
  4227 ;;		_fround
  4228 ;; This function uses a non-reentrant model
  4229 ;;
  4230                           
  4231                           
  4232                           ;psect for function ___ftmul
  4233  06FD                     ___ftmul:	
  4234                           
  4235                           ;incstack = 0
  4236                           ; Regs used in ___ftmul: [wreg+status,2+status,0+pclath+cstack]
  4237  06FD  1283               	bcf	3,5	;RP0=0, select bank0
  4238  06FE  1303               	bcf	3,6	;RP1=0, select bank0
  4239  06FF  0830               	movf	___ftmul@f1,w
  4240  0700  00B6               	movwf	??___ftmul
  4241  0701  0831               	movf	___ftmul@f1+1,w
  4242  0702  00B7               	movwf	??___ftmul+1
  4243  0703  0832               	movf	___ftmul@f1+2,w
  4244  0704  00B8               	movwf	??___ftmul+2
  4245  0705  1003               	clrc
  4246  0706  0D37               	rlf	??___ftmul+1,w
  4247  0707  0D38               	rlf	??___ftmul+2,w
  4248  0708  00B9               	movwf	??___ftmul+3
  4249  0709  0839               	movf	??___ftmul+3,w
  4250  070A  00BA               	movwf	___ftmul@exp
  4251  070B  083A               	movf	___ftmul@exp,w
  4252  070C  1D03               	btfss	3,2
  4253  070D  2F15               	goto	l3316
  4254  070E  3000               	movlw	0
  4255  070F  00B0               	movwf	?___ftmul
  4256  0710  3000               	movlw	0
  4257  0711  00B1               	movwf	?___ftmul+1
  4258  0712  3000               	movlw	0
  4259  0713  00B2               	movwf	?___ftmul+2
  4260  0714  0008               	return
  4261  0715                     l3316:	
  4262  0715  0833               	movf	___ftmul@f2,w
  4263  0716  00B6               	movwf	??___ftmul
  4264  0717  0834               	movf	___ftmul@f2+1,w
  4265  0718  00B7               	movwf	??___ftmul+1
  4266  0719  0835               	movf	___ftmul@f2+2,w
  4267  071A  00B8               	movwf	??___ftmul+2
  4268  071B  1003               	clrc
  4269  071C  0D37               	rlf	??___ftmul+1,w
  4270  071D  0D38               	rlf	??___ftmul+2,w
  4271  071E  00B9               	movwf	??___ftmul+3
  4272  071F  0839               	movf	??___ftmul+3,w
  4273  0720  00BF               	movwf	___ftmul@sign
  4274  0721  083F               	movf	___ftmul@sign,w
  4275  0722  1D03               	btfss	3,2
  4276  0723  2F2B               	goto	l3322
  4277  0724  3000               	movlw	0
  4278  0725  00B0               	movwf	?___ftmul
  4279  0726  3000               	movlw	0
  4280  0727  00B1               	movwf	?___ftmul+1
  4281  0728  3000               	movlw	0
  4282  0729  00B2               	movwf	?___ftmul+2
  4283  072A  0008               	return
  4284  072B                     l3322:	
  4285  072B  083F               	movf	___ftmul@sign,w
  4286  072C  3E7B               	addlw	123
  4287  072D  00B6               	movwf	??___ftmul
  4288  072E  0836               	movf	??___ftmul,w
  4289  072F  07BA               	addwf	___ftmul@exp,f
  4290  0730  0830               	movf	___ftmul@f1,w
  4291  0731  00B6               	movwf	??___ftmul
  4292  0732  0831               	movf	___ftmul@f1+1,w
  4293  0733  00B7               	movwf	??___ftmul+1
  4294  0734  0832               	movf	___ftmul@f1+2,w
  4295  0735  00B8               	movwf	??___ftmul+2
  4296  0736  3010               	movlw	16
  4297  0737                     u3685:	
  4298  0737  1003               	clrc
  4299  0738  0CB8               	rrf	??___ftmul+2,f
  4300  0739  0CB7               	rrf	??___ftmul+1,f
  4301  073A  0CB6               	rrf	??___ftmul,f
  4302  073B  3EFF               	addlw	-1
  4303  073C  1D03               	skipz
  4304  073D  2F37               	goto	u3685
  4305  073E  0836               	movf	??___ftmul,w
  4306  073F  00B9               	movwf	??___ftmul+3
  4307  0740  0839               	movf	??___ftmul+3,w
  4308  0741  00BF               	movwf	___ftmul@sign
  4309  0742  0833               	movf	___ftmul@f2,w
  4310  0743  00B6               	movwf	??___ftmul
  4311  0744  0834               	movf	___ftmul@f2+1,w
  4312  0745  00B7               	movwf	??___ftmul+1
  4313  0746  0835               	movf	___ftmul@f2+2,w
  4314  0747  00B8               	movwf	??___ftmul+2
  4315  0748  3010               	movlw	16
  4316  0749                     u3695:	
  4317  0749  1003               	clrc
  4318  074A  0CB8               	rrf	??___ftmul+2,f
  4319  074B  0CB7               	rrf	??___ftmul+1,f
  4320  074C  0CB6               	rrf	??___ftmul,f
  4321  074D  3EFF               	addlw	-1
  4322  074E  1D03               	skipz
  4323  074F  2F49               	goto	u3695
  4324  0750  0836               	movf	??___ftmul,w
  4325  0751  00B9               	movwf	??___ftmul+3
  4326  0752  0839               	movf	??___ftmul+3,w
  4327  0753  06BF               	xorwf	___ftmul@sign,f
  4328  0754  3080               	movlw	128
  4329  0755  00B6               	movwf	??___ftmul
  4330  0756  0836               	movf	??___ftmul,w
  4331  0757  05BF               	andwf	___ftmul@sign,f
  4332  0758  17B1               	bsf	___ftmul@f1+1,7
  4333  0759  17B4               	bsf	___ftmul@f2+1,7
  4334  075A  30FF               	movlw	255
  4335  075B  05B3               	andwf	___ftmul@f2,f
  4336  075C  30FF               	movlw	255
  4337  075D  05B4               	andwf	___ftmul@f2+1,f
  4338  075E  3000               	movlw	0
  4339  075F  05B5               	andwf	___ftmul@f2+2,f
  4340  0760  3000               	movlw	0
  4341  0761  00BB               	movwf	___ftmul@f3_as_product
  4342  0762  3000               	movlw	0
  4343  0763  00BC               	movwf	___ftmul@f3_as_product+1
  4344  0764  3000               	movlw	0
  4345  0765  00BD               	movwf	___ftmul@f3_as_product+2
  4346  0766  3007               	movlw	7
  4347  0767  00B6               	movwf	??___ftmul
  4348  0768  0836               	movf	??___ftmul,w
  4349  0769  00BE               	movwf	___ftmul@cntr
  4350  076A                     l3334:	
  4351  076A  1C30               	btfss	___ftmul@f1,0
  4352  076B  2F7A               	goto	l3338
  4353  076C  0833               	movf	___ftmul@f2,w
  4354  076D  07BB               	addwf	___ftmul@f3_as_product,f
  4355  076E  0834               	movf	___ftmul@f2+1,w
  4356  076F  1103               	clrz
  4357  0770  1803               	skipnc
  4358  0771  0A34               	incf	___ftmul@f2+1,w
  4359  0772  1D03               	btfss	3,2
  4360  0773  07BC               	addwf	___ftmul@f3_as_product+1,f
  4361  0774  0835               	movf	___ftmul@f2+2,w
  4362  0775  1103               	clrz
  4363  0776  1803               	skipnc
  4364  0777  0A35               	incf	___ftmul@f2+2,w
  4365  0778  1D03               	btfss	3,2
  4366  0779  07BD               	addwf	___ftmul@f3_as_product+2,f
  4367  077A                     l3338:	
  4368  077A  3001               	movlw	1
  4369  077B                     u3725:	
  4370  077B  1003               	clrc
  4371  077C  0CB2               	rrf	___ftmul@f1+2,f
  4372  077D  0CB1               	rrf	___ftmul@f1+1,f
  4373  077E  0CB0               	rrf	___ftmul@f1,f
  4374  077F  3EFF               	addlw	-1
  4375  0780  1D03               	skipz
  4376  0781  2F7B               	goto	u3725
  4377  0782  3001               	movlw	1
  4378  0783                     u3735:	
  4379  0783  1003               	clrc
  4380  0784  0DB3               	rlf	___ftmul@f2,f
  4381  0785  0DB4               	rlf	___ftmul@f2+1,f
  4382  0786  0DB5               	rlf	___ftmul@f2+2,f
  4383  0787  3EFF               	addlw	-1
  4384  0788  1D03               	skipz
  4385  0789  2F83               	goto	u3735
  4386  078A  3001               	movlw	1
  4387  078B  02BE               	subwf	___ftmul@cntr,f
  4388  078C  1D03               	btfss	3,2
  4389  078D  2F6A               	goto	l3334
  4390  078E  3009               	movlw	9
  4391  078F  00B6               	movwf	??___ftmul
  4392  0790  0836               	movf	??___ftmul,w
  4393  0791  00BE               	movwf	___ftmul@cntr
  4394  0792                     l3346:	
  4395  0792  1C30               	btfss	___ftmul@f1,0
  4396  0793  2FA2               	goto	l3350
  4397  0794  0833               	movf	___ftmul@f2,w
  4398  0795  07BB               	addwf	___ftmul@f3_as_product,f
  4399  0796  0834               	movf	___ftmul@f2+1,w
  4400  0797  1103               	clrz
  4401  0798  1803               	skipnc
  4402  0799  0A34               	incf	___ftmul@f2+1,w
  4403  079A  1D03               	btfss	3,2
  4404  079B  07BC               	addwf	___ftmul@f3_as_product+1,f
  4405  079C  0835               	movf	___ftmul@f2+2,w
  4406  079D  1103               	clrz
  4407  079E  1803               	skipnc
  4408  079F  0A35               	incf	___ftmul@f2+2,w
  4409  07A0  1D03               	btfss	3,2
  4410  07A1  07BD               	addwf	___ftmul@f3_as_product+2,f
  4411  07A2                     l3350:	
  4412  07A2  3001               	movlw	1
  4413  07A3                     u3775:	
  4414  07A3  1003               	clrc
  4415  07A4  0CB2               	rrf	___ftmul@f1+2,f
  4416  07A5  0CB1               	rrf	___ftmul@f1+1,f
  4417  07A6  0CB0               	rrf	___ftmul@f1,f
  4418  07A7  3EFF               	addlw	-1
  4419  07A8  1D03               	skipz
  4420  07A9  2FA3               	goto	u3775
  4421  07AA  3001               	movlw	1
  4422  07AB                     u3785:	
  4423  07AB  1003               	clrc
  4424  07AC  0CBD               	rrf	___ftmul@f3_as_product+2,f
  4425  07AD  0CBC               	rrf	___ftmul@f3_as_product+1,f
  4426  07AE  0CBB               	rrf	___ftmul@f3_as_product,f
  4427  07AF  3EFF               	addlw	-1
  4428  07B0  1D03               	skipz
  4429  07B1  2FAB               	goto	u3785
  4430  07B2  3001               	movlw	1
  4431  07B3  02BE               	subwf	___ftmul@cntr,f
  4432  07B4  1D03               	btfss	3,2
  4433  07B5  2F92               	goto	l3346
  4434  07B6  083B               	movf	___ftmul@f3_as_product,w
  4435  07B7  00A0               	movwf	___ftpack@arg
  4436  07B8  083C               	movf	___ftmul@f3_as_product+1,w
  4437  07B9  00A1               	movwf	___ftpack@arg+1
  4438  07BA  083D               	movf	___ftmul@f3_as_product+2,w
  4439  07BB  00A2               	movwf	___ftpack@arg+2
  4440  07BC  083A               	movf	___ftmul@exp,w
  4441  07BD  00B6               	movwf	??___ftmul
  4442  07BE  0836               	movf	??___ftmul,w
  4443  07BF  00A3               	movwf	___ftpack@exp
  4444  07C0  083F               	movf	___ftmul@sign,w
  4445  07C1  00B7               	movwf	??___ftmul+1
  4446  07C2  0837               	movf	??___ftmul+1,w
  4447  07C3  00A4               	movwf	___ftpack@sign
  4448  07C4  120A  118A  24FB   	fcall	___ftpack
  4449  07C7  1283               	bcf	3,5	;RP0=0, select bank0
  4450  07C8  1303               	bcf	3,6	;RP1=0, select bank0
  4451  07C9  0820               	movf	?___ftpack,w
  4452  07CA  00B0               	movwf	?___ftmul
  4453  07CB  0821               	movf	?___ftpack+1,w
  4454  07CC  00B1               	movwf	?___ftmul+1
  4455  07CD  0822               	movf	?___ftpack+2,w
  4456  07CE  00B2               	movwf	?___ftmul+2
  4457  07CF  0008               	return
  4458  07D0                     __end_of___ftmul:	
  4459                           
  4460                           	psect	text21
  4461  04FB                     __ptext21:	
  4462 ;; *************** function ___ftpack *****************
  4463 ;; Defined at:
  4464 ;;		line 62 in file "C:\Program Files (x86)\Microchip\xc8\v1.45\sources\common\float.c"
  4465 ;; Parameters:    Size  Location     Type
  4466 ;;  arg             3    0[BANK0 ] unsigned um
  4467 ;;  exp             1    3[BANK0 ] unsigned char 
  4468 ;;  sign            1    4[BANK0 ] unsigned char 
  4469 ;; Auto vars:     Size  Location     Type
  4470 ;;		None
  4471 ;; Return value:  Size  Location     Type
  4472 ;;                  3    0[BANK0 ] float 
  4473 ;; Registers used:
  4474 ;;		wreg, status,2, status,0
  4475 ;; Tracked objects:
  4476 ;;		On entry : 0/0
  4477 ;;		On exit  : 0/0
  4478 ;;		Unchanged: 0/0
  4479 ;; Data sizes:     COMMON   BANK0   BANK1   BANK3   BANK2
  4480 ;;      Params:         0       5       0       0       0
  4481 ;;      Locals:         0       0       0       0       0
  4482 ;;      Temps:          0       3       0       0       0
  4483 ;;      Totals:         0       8       0       0       0
  4484 ;;Total ram usage:        8 bytes
  4485 ;; Hardware stack levels used:    1
  4486 ;; Hardware stack levels required when called:    1
  4487 ;; This function calls:
  4488 ;;		Nothing
  4489 ;; This function is called by:
  4490 ;;		___ftmul
  4491 ;;		___lbtoft
  4492 ;;		___lltoft
  4493 ;;		___ftadd
  4494 ;;		___ftdiv
  4495 ;; This function uses a non-reentrant model
  4496 ;;
  4497                           
  4498                           
  4499                           ;psect for function ___ftpack
  4500  04FB                     ___ftpack:	
  4501                           
  4502                           ;incstack = 0
  4503                           ; Regs used in ___ftpack: [wreg+status,2+status,0]
  4504  04FB  1283               	bcf	3,5	;RP0=0, select bank0
  4505  04FC  1303               	bcf	3,6	;RP1=0, select bank0
  4506  04FD  0823               	movf	___ftpack@exp,w
  4507  04FE  1903               	btfsc	3,2
  4508  04FF  2D05               	goto	l3140
  4509  0500  0822               	movf	___ftpack@arg+2,w
  4510  0501  0421               	iorwf	___ftpack@arg+1,w
  4511  0502  0420               	iorwf	___ftpack@arg,w
  4512  0503  1D03               	skipz
  4513  0504  2D18               	goto	l3146
  4514  0505                     l3140:	
  4515  0505  3000               	movlw	0
  4516  0506  00A0               	movwf	?___ftpack
  4517  0507  3000               	movlw	0
  4518  0508  00A1               	movwf	?___ftpack+1
  4519  0509  3000               	movlw	0
  4520  050A  00A2               	movwf	?___ftpack+2
  4521  050B  0008               	return
  4522  050C                     l3144:	
  4523  050C  3001               	movlw	1
  4524  050D  00A5               	movwf	??___ftpack
  4525  050E  0825               	movf	??___ftpack,w
  4526  050F  07A3               	addwf	___ftpack@exp,f
  4527  0510  3001               	movlw	1
  4528  0511                     u3455:	
  4529  0511  1003               	clrc
  4530  0512  0CA2               	rrf	___ftpack@arg+2,f
  4531  0513  0CA1               	rrf	___ftpack@arg+1,f
  4532  0514  0CA0               	rrf	___ftpack@arg,f
  4533  0515  3EFF               	addlw	-1
  4534  0516  1D03               	skipz
  4535  0517  2D11               	goto	u3455
  4536  0518                     l3146:	
  4537  0518  30FE               	movlw	254
  4538  0519  0522               	andwf	___ftpack@arg+2,w
  4539  051A  1903               	btfsc	3,2
  4540  051B  2D33               	goto	l1019
  4541  051C  2D0C               	goto	l3144
  4542  051D                     l3148:	
  4543  051D  3001               	movlw	1
  4544  051E  00A5               	movwf	??___ftpack
  4545  051F  0825               	movf	??___ftpack,w
  4546  0520  07A3               	addwf	___ftpack@exp,f
  4547  0521  3001               	movlw	1
  4548  0522  07A0               	addwf	___ftpack@arg,f
  4549  0523  3000               	movlw	0
  4550  0524  1803               	skipnc
  4551  0525  3001               	movlw	1
  4552  0526  07A1               	addwf	___ftpack@arg+1,f
  4553  0527  3000               	movlw	0
  4554  0528  1803               	skipnc
  4555  0529  3001               	movlw	1
  4556  052A  07A2               	addwf	___ftpack@arg+2,f
  4557  052B  3001               	movlw	1
  4558  052C                     u3475:	
  4559  052C  1003               	clrc
  4560  052D  0CA2               	rrf	___ftpack@arg+2,f
  4561  052E  0CA1               	rrf	___ftpack@arg+1,f
  4562  052F  0CA0               	rrf	___ftpack@arg,f
  4563  0530  3EFF               	addlw	-1
  4564  0531  1D03               	skipz
  4565  0532  2D2C               	goto	u3475
  4566  0533                     l1019:	
  4567  0533  30FF               	movlw	255
  4568  0534  0522               	andwf	___ftpack@arg+2,w
  4569  0535  1903               	btfsc	3,2
  4570  0536  2D42               	goto	l3156
  4571  0537  2D1D               	goto	l3148
  4572  0538                     l3154:	
  4573  0538  3001               	movlw	1
  4574  0539  02A3               	subwf	___ftpack@exp,f
  4575  053A  3001               	movlw	1
  4576  053B                     u3495:	
  4577  053B  1003               	clrc
  4578  053C  0DA0               	rlf	___ftpack@arg,f
  4579  053D  0DA1               	rlf	___ftpack@arg+1,f
  4580  053E  0DA2               	rlf	___ftpack@arg+2,f
  4581  053F  3EFF               	addlw	-1
  4582  0540  1D03               	skipz
  4583  0541  2D3B               	goto	u3495
  4584  0542                     l3156:	
  4585  0542  1BA1               	btfsc	___ftpack@arg+1,7
  4586  0543  2D48               	goto	l1026
  4587  0544  3002               	movlw	2
  4588  0545  0223               	subwf	___ftpack@exp,w
  4589  0546  1803               	skipnc
  4590  0547  2D38               	goto	l3154
  4591  0548                     l1026:	
  4592  0548  1823               	btfsc	___ftpack@exp,0
  4593  0549  2D50               	goto	l1027
  4594  054A  30FF               	movlw	255
  4595  054B  05A0               	andwf	___ftpack@arg,f
  4596  054C  307F               	movlw	127
  4597  054D  05A1               	andwf	___ftpack@arg+1,f
  4598  054E  30FF               	movlw	255
  4599  054F  05A2               	andwf	___ftpack@arg+2,f
  4600  0550                     l1027:	
  4601  0550  1003               	clrc
  4602  0551  0CA3               	rrf	___ftpack@exp,f
  4603  0552  0823               	movf	___ftpack@exp,w
  4604  0553  00A5               	movwf	??___ftpack
  4605  0554  01A6               	clrf	??___ftpack+1
  4606  0555  01A7               	clrf	??___ftpack+2
  4607  0556  3010               	movlw	16
  4608  0557                     u3535:	
  4609  0557  1003               	clrc
  4610  0558  0DA5               	rlf	??___ftpack,f
  4611  0559  0DA6               	rlf	??___ftpack+1,f
  4612  055A  0DA7               	rlf	??___ftpack+2,f
  4613  055B  3EFF               	addlw	-1
  4614  055C  1D03               	skipz
  4615  055D  2D57               	goto	u3535
  4616  055E  0825               	movf	??___ftpack,w
  4617  055F  04A0               	iorwf	___ftpack@arg,f
  4618  0560  0826               	movf	??___ftpack+1,w
  4619  0561  04A1               	iorwf	___ftpack@arg+1,f
  4620  0562  0827               	movf	??___ftpack+2,w
  4621  0563  04A2               	iorwf	___ftpack@arg+2,f
  4622  0564  0824               	movf	___ftpack@sign,w
  4623  0565  1903               	btfsc	3,2
  4624  0566  0008               	return
  4625  0567  17A2               	bsf	___ftpack@arg+2,7
  4626  0568  0008               	return
  4627  0569                     __end_of___ftpack:	
  4628                           
  4629                           	psect	text22
  4630  01E9                     __ptext22:	
  4631 ;; *************** function _eeprom_Read *****************
  4632 ;; Defined at:
  4633 ;;		line 33 in file "_25LC160B_EEPROM.c"
  4634 ;; Parameters:    Size  Location     Type
  4635 ;;  iAddress        1    wreg     unsigned char 
  4636 ;; Auto vars:     Size  Location     Type
  4637 ;;  iAddress        1    2[BANK0 ] unsigned char 
  4638 ;;  dataRead        1    3[BANK0 ] unsigned char 
  4639 ;; Return value:  Size  Location     Type
  4640 ;;                  1    wreg      unsigned char 
  4641 ;; Registers used:
  4642 ;;		wreg, status,2, status,0, pclath, cstack
  4643 ;; Tracked objects:
  4644 ;;		On entry : 0/0
  4645 ;;		On exit  : 0/0
  4646 ;;		Unchanged: 0/0
  4647 ;; Data sizes:     COMMON   BANK0   BANK1   BANK3   BANK2
  4648 ;;      Params:         0       0       0       0       0
  4649 ;;      Locals:         0       2       0       0       0
  4650 ;;      Temps:          0       1       0       0       0
  4651 ;;      Totals:         0       3       0       0       0
  4652 ;;Total ram usage:        3 bytes
  4653 ;; Hardware stack levels used:    1
  4654 ;; Hardware stack levels required when called:    2
  4655 ;; This function calls:
  4656 ;;		_SPI_MasterTransmit
  4657 ;; This function is called by:
  4658 ;;		_main
  4659 ;;		_eeprom_Read_String
  4660 ;; This function uses a non-reentrant model
  4661 ;;
  4662                           
  4663                           
  4664                           ;psect for function _eeprom_Read
  4665  01E9                     _eeprom_Read:	
  4666                           
  4667                           ;incstack = 0
  4668                           ; Regs used in _eeprom_Read: [wreg+status,2+status,0+pclath+cstack]
  4669                           ;eeprom_Read@iAddress stored from wreg
  4670  01E9  1283               	bcf	3,5	;RP0=0, select bank0
  4671  01EA  1303               	bcf	3,6	;RP1=0, select bank0
  4672  01EB  00A2               	movwf	eeprom_Read@iAddress
  4673                           
  4674                           ;_25LC160B_EEPROM.c: 34: uint8_t dataRead;
  4675                           ;_25LC160B_EEPROM.c: 35: PORTAbits.RA5 = 0;
  4676  01EC  1285               	bcf	5,5	;volatile
  4677                           
  4678                           ;_25LC160B_EEPROM.c: 36: SPI_MasterTransmit(0x03);
  4679  01ED  3003               	movlw	3
  4680  01EE  120A  118A  211D  120A  118A  	fcall	_SPI_MasterTransmit
  4681                           
  4682                           ;_25LC160B_EEPROM.c: 37: SPI_MasterTransmit(iAddress>>8);
  4683  01F3  3000               	movlw	0
  4684  01F4  120A  118A  211D  120A  118A  	fcall	_SPI_MasterTransmit
  4685                           
  4686                           ;_25LC160B_EEPROM.c: 38: SPI_MasterTransmit(iAddress);
  4687  01F9  1283               	bcf	3,5	;RP0=0, select bank0
  4688  01FA  1303               	bcf	3,6	;RP1=0, select bank0
  4689  01FB  0822               	movf	eeprom_Read@iAddress,w
  4690  01FC  120A  118A  211D  120A  118A  	fcall	_SPI_MasterTransmit
  4691                           
  4692                           ;_25LC160B_EEPROM.c: 39: SPI_MasterTransmit((0));
  4693  0201  3000               	movlw	0
  4694  0202  120A  118A  211D   	fcall	_SPI_MasterTransmit
  4695                           
  4696                           ;_25LC160B_EEPROM.c: 40: PORTAbits.RA5 = 1;
  4697  0205  1283               	bcf	3,5	;RP0=0, select bank0
  4698  0206  1303               	bcf	3,6	;RP1=0, select bank0
  4699  0207  1685               	bsf	5,5	;volatile
  4700                           
  4701                           ;_25LC160B_EEPROM.c: 41: dataRead = SSPBUF;
  4702  0208  0813               	movf	19,w	;volatile
  4703  0209  00A1               	movwf	??_eeprom_Read
  4704  020A  0821               	movf	??_eeprom_Read,w
  4705  020B  00A3               	movwf	eeprom_Read@dataRead
  4706                           
  4707                           ;_25LC160B_EEPROM.c: 42: return dataRead;
  4708  020C  0823               	movf	eeprom_Read@dataRead,w
  4709  020D  0008               	return
  4710  020E                     __end_of_eeprom_Read:	
  4711                           
  4712                           	psect	text23
  4713  011D                     __ptext23:	
  4714 ;; *************** function _SPI_MasterTransmit *****************
  4715 ;; Defined at:
  4716 ;;		line 21 in file "spi_Init.c"
  4717 ;; Parameters:    Size  Location     Type
  4718 ;;  iData           1    wreg     unsigned char 
  4719 ;; Auto vars:     Size  Location     Type
  4720 ;;  iData           1    0[BANK0 ] unsigned char 
  4721 ;; Return value:  Size  Location     Type
  4722 ;;                  1    wreg      void 
  4723 ;; Registers used:
  4724 ;;		wreg
  4725 ;; Tracked objects:
  4726 ;;		On entry : 0/0
  4727 ;;		On exit  : 0/0
  4728 ;;		Unchanged: 0/0
  4729 ;; Data sizes:     COMMON   BANK0   BANK1   BANK3   BANK2
  4730 ;;      Params:         0       0       0       0       0
  4731 ;;      Locals:         0       1       0       0       0
  4732 ;;      Temps:          0       0       0       0       0
  4733 ;;      Totals:         0       1       0       0       0
  4734 ;;Total ram usage:        1 bytes
  4735 ;; Hardware stack levels used:    1
  4736 ;; Hardware stack levels required when called:    1
  4737 ;; This function calls:
  4738 ;;		Nothing
  4739 ;; This function is called by:
  4740 ;;		_eeprom_Write
  4741 ;;		_eeprom_Read
  4742 ;; This function uses a non-reentrant model
  4743 ;;
  4744                           
  4745                           
  4746                           ;psect for function _SPI_MasterTransmit
  4747  011D                     _SPI_MasterTransmit:	
  4748                           
  4749                           ;incstack = 0
  4750                           ; Regs used in _SPI_MasterTransmit: [wreg]
  4751                           ;SPI_MasterTransmit@iData stored from wreg
  4752  011D  1283               	bcf	3,5	;RP0=0, select bank0
  4753  011E  1303               	bcf	3,6	;RP1=0, select bank0
  4754  011F  00A0               	movwf	SPI_MasterTransmit@iData
  4755                           
  4756                           ;spi_Init.c: 22: SSPBUF = iData;
  4757  0120  0820               	movf	SPI_MasterTransmit@iData,w
  4758  0121  0093               	movwf	19	;volatile
  4759  0122                     l505:	
  4760                           ;spi_Init.c: 23: while (!SSPSTATbits.BF);
  4761                           
  4762  0122  1683               	bsf	3,5	;RP0=1, select bank1
  4763  0123  1303               	bcf	3,6	;RP1=0, select bank1
  4764  0124  1814               	btfsc	20,0	;volatile
  4765  0125  0008               	return
  4766  0126  2922               	goto	l505
  4767  0127                     __end_of_SPI_MasterTransmit:	
  4768                           
  4769                           	psect	text24
  4770  01C9                     __ptext24:	
  4771 ;; *************** function _ISR *****************
  4772 ;; Defined at:
  4773 ;;		line 25 in file "interrupt_Init.c"
  4774 ;; Parameters:    Size  Location     Type
  4775 ;;		None
  4776 ;; Auto vars:     Size  Location     Type
  4777 ;;		None
  4778 ;; Return value:  Size  Location     Type
  4779 ;;                  1    wreg      void 
  4780 ;; Registers used:
  4781 ;;		wreg
  4782 ;; Tracked objects:
  4783 ;;		On entry : 0/0
  4784 ;;		On exit  : 0/0
  4785 ;;		Unchanged: 0/0
  4786 ;; Data sizes:     COMMON   BANK0   BANK1   BANK3   BANK2
  4787 ;;      Params:         0       0       0       0       0
  4788 ;;      Locals:         0       0       0       0       0
  4789 ;;      Temps:          6       0       0       0       0
  4790 ;;      Totals:         6       0       0       0       0
  4791 ;;Total ram usage:        6 bytes
  4792 ;; Hardware stack levels used:    1
  4793 ;; This function calls:
  4794 ;;		Nothing
  4795 ;; This function is called by:
  4796 ;;		Interrupt level 1
  4797 ;; This function uses a non-reentrant model
  4798 ;;
  4799                           
  4800                           
  4801                           ;psect for function _ISR
  4802  01C9                     _ISR:	
  4803                           
  4804                           ;interrupt_Init.c: 32: if (INTCONbits.T0IE == 1 && INTCONbits.T0IF == 1) {
  4805  01C9  1A8B               	btfsc	11,5	;volatile
  4806  01CA  1D0B               	btfss	11,2	;volatile
  4807  01CB  29DE               	goto	i1l393
  4808                           
  4809                           ;interrupt_Init.c: 33: if(PORTBbits.RB6 == 1){
  4810  01CC  1F06               	btfss	6,6	;volatile
  4811  01CD  29DD               	goto	i1l391
  4812                           
  4813                           ;interrupt_Init.c: 34: _delay((unsigned long)((10)*(8000000UL/4000.0)));
  4814  01CE  301A               	movlw	26
  4815  01CF  00F8               	movwf	??_ISR+1
  4816  01D0  30F8               	movlw	248
  4817  01D1  00F7               	movwf	??_ISR
  4818  01D2                     u492_27:	
  4819  01D2  0BF7               	decfsz	??_ISR,f
  4820  01D3  29D2               	goto	u492_27
  4821  01D4  0BF8               	decfsz	??_ISR+1,f
  4822  01D5  29D2               	goto	u492_27
  4823  01D6  0000               	nop
  4824                           
  4825                           ;interrupt_Init.c: 35: if(PORTBbits.RB6 == 1){
  4826  01D7  1283               	bcf	3,5	;RP0=0, select bank0
  4827  01D8  1303               	bcf	3,6	;RP1=0, select bank0
  4828  01D9  1F06               	btfss	6,6	;volatile
  4829  01DA  29DD               	goto	i1l391
  4830                           
  4831                           ;interrupt_Init.c: 36: increaseTime_Enabled = 1;
  4832  01DB  01DA               	clrf	_increaseTime_Enabled
  4833  01DC  0ADA               	incf	_increaseTime_Enabled,f
  4834  01DD                     i1l391:	
  4835                           
  4836                           ;interrupt_Init.c: 37: }
  4837                           ;interrupt_Init.c: 38: }
  4838                           ;interrupt_Init.c: 39: INTCONbits.T0IF = 0;
  4839  01DD  110B               	bcf	11,2	;volatile
  4840  01DE                     i1l393:	
  4841  01DE  087C               	movf	??_ISR+5,w
  4842  01DF  00FF               	movwf	127
  4843  01E0  087B               	movf	??_ISR+4,w
  4844  01E1  008A               	movwf	10
  4845  01E2  087A               	movf	??_ISR+3,w
  4846  01E3  0084               	movwf	4
  4847  01E4  0E79               	swapf	(??_ISR+2)^(0+-128),w
  4848  01E5  0083               	movwf	3
  4849  01E6  0EFE               	swapf	126,f
  4850  01E7  0E7E               	swapf	126,w
  4851  01E8  0009               	retfie
  4852  01E9                     __end_of_ISR:	
  4853  007E                     btemp	set	126	;btemp
  4854  007E                     wtemp0	set	126
  4855                           
  4856                           	psect	intentry
  4857  0004                     __pintentry:	
  4858                           ;incstack = 0
  4859                           ; Regs used in _ISR: [wreg]
  4860                           
  4861  0004                     interrupt_function:	
  4862  007E                     saved_w	set	btemp
  4863  0004  00FE               	movwf	btemp
  4864  0005  0E03               	swapf	3,w
  4865  0006  00F9               	movwf	??_ISR+2
  4866  0007  0804               	movf	4,w
  4867  0008  00FA               	movwf	??_ISR+3
  4868  0009  080A               	movf	10,w
  4869  000A  00FB               	movwf	??_ISR+4
  4870  000B  1283               	bcf	3,5	;RP0=0, select bank0
  4871  000C  1303               	bcf	3,6	;RP1=0, select bank0
  4872  000D  087F               	movf	btemp+1,w
  4873  000E  00FC               	movwf	??_ISR+5
  4874  000F  120A  118A  29C9   	ljmp	_ISR


Data Sizes:
    Strings     22
    Constant    118
    Data        78
    BSS         19
    Persistent  0
    Stack       0

Auto Spaces:
    Space          Size  Autos    Used
    COMMON           13      6      12
    BANK0            80     52      76
    BANK1            80      0      67
    BANK3            85      0       0
    BANK2            96      0       0

Pointer List with Targets:

    dataBuffer	PTR unsigned long  size(1) Largest target is 0
		 -> NULL(NULL[0]), 


Critical Paths under _main in COMMON

    None.

Critical Paths under _ISR in COMMON

    None.

Critical Paths under _main in BANK0

    _main->_led_Demo
    _system_Initialize->_PWM_DutyCycle
    _system_Initialize->_PWM_Init
    _system_Initialize->_UART_Init
    _UART_Init->___lldiv
    _PWM_Init->___lldiv
    _PWM_DutyCycle->___lldiv
    ___lldiv->___lmul
    _Lcd_Init->_Lcd_Cmd
    _Lcd_Cmd->_Lcd_Port
    _led_Demo->___fttol
    _eeprom_Write->_SPI_MasterTransmit
    ___lbtoft->___ftpack
    ___fttol->___ftmul
    ___ftmul->___lbtoft
    _eeprom_Read->_SPI_MasterTransmit

Critical Paths under _ISR in BANK0

    None.

Critical Paths under _main in BANK1

    None.

Critical Paths under _ISR in BANK1

    None.

Critical Paths under _main in BANK3

    None.

Critical Paths under _ISR in BANK3

    None.

Critical Paths under _main in BANK2

    None.

Critical Paths under _ISR in BANK2

    None.

Call Graph Tables:

 ---------------------------------------------------------------------------------
 (Depth) Function   	        Calls       Base Space   Used Autos Params    Refs
 ---------------------------------------------------------------------------------
 (0) _main                                                 1     1      0   12741
                                             51 BANK0      1     1      0
                        _eeprom_Read
                       _eeprom_Write
                           _led_Demo
                  _system_Initialize
 ---------------------------------------------------------------------------------
 (1) _system_Initialize                                    0     0      0    3488
                           _ADC_Init
                     _Interrupt_Init
                           _Lcd_Init
                    _Oscillator_Init
                      _PWM_DutyCycle
                           _PWM_Init
                           _SPI_Init
                          _TMR0_Init
                          _UART_Init
                         _pinManager
 ---------------------------------------------------------------------------------
 (2) _pinManager                                           0     0      0       0
 ---------------------------------------------------------------------------------
 (2) _UART_Init                                            8     4      4     944
                                             27 BANK0      8     4      4
                            ___lldiv
 ---------------------------------------------------------------------------------
 (2) _TMR0_Init                                            0     0      0       0
 ---------------------------------------------------------------------------------
 (2) _SPI_Init                                             0     0      0       0
 ---------------------------------------------------------------------------------
 (2) _PWM_Init                                             8     4      4     944
                                             27 BANK0      8     4      4
                            ___lldiv
 ---------------------------------------------------------------------------------
 (2) _PWM_DutyCycle                                        8     4      4    1321
                                             27 BANK0      8     4      4
                            ___lldiv
                             ___lmul
 ---------------------------------------------------------------------------------
 (3) ___lmul                                              13     5      8     290
                                              0 BANK0     13     5      8
 ---------------------------------------------------------------------------------
 (3) ___lldiv                                             14     6      8     858
                                             13 BANK0     14     6      8
                             ___lmul (ARG)
 ---------------------------------------------------------------------------------
 (2) _Oscillator_Init                                      0     0      0       0
 ---------------------------------------------------------------------------------
 (2) _Lcd_Init                                             2     2      0     279
                                              4 BANK0      2     2      0
                            _Lcd_Cmd
                           _Lcd_Port
 ---------------------------------------------------------------------------------
 (3) _Lcd_Cmd                                              3     3      0     155
                                              1 BANK0      3     3      0
                           _Lcd_Port
 ---------------------------------------------------------------------------------
 (3) _Lcd_Port                                             1     1      0     124
                                              0 BANK0      1     1      0
 ---------------------------------------------------------------------------------
 (2) _Interrupt_Init                                       0     0      0       0
 ---------------------------------------------------------------------------------
 (2) _ADC_Init                                             0     0      0       0
 ---------------------------------------------------------------------------------
 (1) _led_Demo                                             5     5      0    8602
                                             46 BANK0      5     5      0
                            ___ftmul
                            ___fttol
                           ___lbtoft
                       _eeprom_Write
 ---------------------------------------------------------------------------------
 (2) _eeprom_Write                                         4     3      1     555
                                              1 BANK0      4     3      1
                 _SPI_MasterTransmit
 ---------------------------------------------------------------------------------
 (2) ___lbtoft                                             8     5      3    2411
                                              8 BANK0      8     5      3
                           ___ftpack
 ---------------------------------------------------------------------------------
 (2) ___fttol                                             14    10      4     536
                                             32 BANK0     14    10      4
                            ___ftmul (ARG)
                           ___lbtoft (ARG)
 ---------------------------------------------------------------------------------
 (2) ___ftmul                                             16    10      6    5038
                                             16 BANK0     16    10      6
                           ___ftpack
                           ___lbtoft (ARG)
 ---------------------------------------------------------------------------------
 (3) ___ftpack                                             8     3      5    2380
                                              0 BANK0      8     3      5
 ---------------------------------------------------------------------------------
 (1) _eeprom_Read                                          3     3      0      96
                                              1 BANK0      3     3      0
                 _SPI_MasterTransmit
 ---------------------------------------------------------------------------------
 (3) _SPI_MasterTransmit                                   1     1      0      31
                                              0 BANK0      1     1      0
 ---------------------------------------------------------------------------------
 Estimated maximum stack depth 3
 ---------------------------------------------------------------------------------
 (Depth) Function   	        Calls       Base Space   Used Autos Params    Refs
 ---------------------------------------------------------------------------------
 (5) _ISR                                                  6     6      0       0
                                              0 COMMON     6     6      0
 ---------------------------------------------------------------------------------
 Estimated maximum stack depth 5
 ---------------------------------------------------------------------------------

 Call Graph Graphs:

 _main (ROOT)
   _eeprom_Read
     _SPI_MasterTransmit
   _eeprom_Write
     _SPI_MasterTransmit
   _led_Demo
     ___ftmul
       ___ftpack
       ___lbtoft (ARG)
         ___ftpack
     ___fttol
       ___ftmul (ARG)
         ___ftpack
         ___lbtoft (ARG)
           ___ftpack
       ___lbtoft (ARG)
         ___ftpack
     ___lbtoft
       ___ftpack
     _eeprom_Write
       _SPI_MasterTransmit
   _system_Initialize
     _ADC_Init
     _Interrupt_Init
     _Lcd_Init
       _Lcd_Cmd
         _Lcd_Port
       _Lcd_Port
     _Oscillator_Init
     _PWM_DutyCycle
       ___lldiv
         ___lmul (ARG)
       ___lmul
     _PWM_Init
       ___lldiv
         ___lmul (ARG)
     _SPI_Init
     _TMR0_Init
     _UART_Init
       ___lldiv
         ___lmul (ARG)
     _pinManager

 _ISR (ROOT)

 Address spaces:
Name               Size   Autos  Total    Cost      Usage
BANK3               55      0       0       9        0.0%
BITBANK3            55      0       0       8        0.0%
SFR3                 0      0       0       4        0.0%
BITSFR3              0      0       0       4        0.0%
BANK2               60      0       0      11        0.0%
BITBANK2            60      0       0      10        0.0%
SFR2                 0      0       0       5        0.0%
BITSFR2              0      0       0       5        0.0%
BANK1               50      0      43       7       83.8%
BITBANK1            50      0       0       6        0.0%
SFR1                 0      0       0       2        0.0%
BITSFR1              0      0       0       2        0.0%
BANK0               50     34      4C       5       95.0%
BITBANK0            50      0       0       4        0.0%
SFR0                 0      0       0       1        0.0%
BITSFR0              0      0       0       1        0.0%
COMMON               D      6       C       1       92.3%
BITCOMMON            D      0       0       0        0.0%
CODE                 0      0       0       0        0.0%
DATA                 0      0      9B      12        0.0%
ABS                  0      0      9B       3        0.0%
NULL                 0      0       0       0        0.0%
STACK                0      0       0       2        0.0%
EEDATA             100      0       0       0        0.0%


Microchip Technology PIC Macro Assembler V1.45 build -152302408 
Symbol Table                                                                                   Mon Jul 29 12:41:48 2019

       eeprom_Write@iAddress 0021             ??_Interrupt_Init 0020       __size_of_PWM_DutyCycle 006F  
                          pc 0002                  __CFG_CP$OFF 0000                  _SSPSTATbits 0094  
                         fsr 0004                          l262 0165                          l263 0166  
                        l264 016A                          l505 0122                          l265 016B  
                        l266 016F                          l267 0170                          l268 0174  
                        _PR2 0092                 __CFG_CPD$OFF 0000                          _ISR 01C9  
                        _adc 0057                          fsr0 0004                          indf 0000  
               __CFG_FOSC$HS 0000                 __CFG_LVP$OFF 0000               ??_eeprom_Write 0022  
                       ?_ISR 0077                         l1026 0548                         l1027 0550  
                       l1019 0533                         l1127 064C                         l2200 065D  
                       l3140 0505                         l3124 0246                         l3144 050C  
                       l2168 05F2                         l3128 025C                         l3154 0538  
                       l3146 0518                         l3322 072B                         l2194 0641  
                       l2186 0624                         l3250 0188                         l3156 0542  
                       l3148 051D                         l3316 0715                         l2196 064F  
                       l2188 0634                         l3350 07A2                         l3334 076A  
                       l3346 0792                         l3338 077A                         l1940 0492  
                       l1926 044D                         l3392 06E9                         l1936 0485  
                       l1928 045D                         l3560 04DC                         l3552 04C7  
                       l3562 04DE                         l3554 04C9                         l3556 04D3  
                       l3558 04DA                         l3566 04EA                         STR_1 00A8  
                       STR_3 009B                         STR_4 00AD                         u1155 0451  
                       u1235 0355                         u1175 045F                         u1185 0474  
                       u1265 02B1                         u1195 0486                         u1525 0625  
                       u1555 0643                         u3405 025E                         u1495 05F9  
                       u3415 0266                         u3550 0185                         u3535 0557  
                       u3455 0511                         u3475 052C                         u3804 06A1  
                       u3725 077B                         u3805 069F                         u3495 053B  
                       u3735 0783                         u3575 05B6                         u3585 05CD  
                       u3685 0737                         u3775 07A3                         u3695 0749  
                       u3785 07AB                         u4907 0315                         u4917 0342  
                       u4867 03E7                         u4877 03F7                         u4887 0407  
                       u4897 01A2                         _TMR0 0001                 __CFG_WRT$OFF 0000  
                       _main 049B                 ___ftpack@arg 0020                 ___ftpack@exp 0023  
                       btemp 007E             __end_of_ADC_Init 018F           _SPI_MasterTransmit 011D  
                       start 0012                __CFG_IESO$OFF 0000              __end_of_Lcd_Cmd 01AB  
              __CFG_MCLRE$ON 0000                 ___ftmul@cntr 003E                 ___ftmul@sign 003F  
          ??_Oscillator_Init 0020          ?_SPI_MasterTransmit 0077                        ??_ISR 0077  
               ___fttol@exp1 004D                 ___fttol@lval 0049                        ?_main 0077  
                      _EEADR 010D                __CFG_WDTE$OFF 0000              __end_of___lldiv 049B  
            __end_of___ftmul 07D0              __end_of___fttol 0666                        i1l391 01DD  
                      i1l393 01DE                        _RCREG 001A                        _SPBRG 0099  
                      _PORTA 0005                        _PORTB 0006                        _PORTC 0007  
                      _PORTD 0008                        _PORTE 0009                        _TRISB 0086  
                      _TRISD 0088                        _TXREG 0019          ___lmul@multiplicand 0024  
             __CFG_FCMEN$OFF 0000           __size_of_UART_Init 0042           __size_of_TMR0_Init 000F  
              _PWM_DutyCycle 0569         ??_SPI_MasterTransmit 0020              __end_of_dpowers 004D  
                      _shift 006B                ___ftpack@sign 0024             __end_of_SPI_Init 013E  
             __CFG_BOREN$OFF 0000                        pclath 000A             __end_of_PWM_Init 038C  
                      status 0003                        wtemp0 007E             __end_of_Lcd_Init 043B  
           __end_of_Lcd_Port 0176              __initialization 07D0                 __end_of_main 04FB  
               _student_Name 00CD                       ??_main 0053                ___fttol@sign1 0048  
             ?_PWM_DutyCycle 003B                       _ADRESH 001E                       _ADRESL 009E  
                     _EEDATA 010C                       _CCPR1L 0015                       _EECON2 018D  
           __end_of___ftpack 0569                       _ANSELH 0189             __end_of___lbtoft 01C9  
       _increaseTime_Enabled 005A                       _OSCCON 008F                       u492_27 01D2  
                  ??_Lcd_Cmd 0021      SPI_MasterTransmit@iData 0020                       _SSPBUF 0013  
             __CFG_PWRTE$OFF 0000         __size_of_eeprom_Read 0025             __end_of_led_Demo 06FD  
           __end_of__powers_ 0074            __end_of_UART_Init 02BF            __end_of_TMR0_Init 014D  
                     ___lmul 023C                    ??___lldiv 0035                    ??___ftmul 0036  
                  ??___fttol 0044         __end_of_eeprom_Write 0347        ___ftmul@f3_as_product 003B  
                  ?_ADC_Init 0077                       saved_w 007E      __end_of__initialization 07FC  
                 ___lbtoft@c 002F                   ___ftmul@f1 0030                   ___ftmul@f2 0033  
                 ___fttol@f1 0040               __pcstackCOMMON 0077                 __pidataBANK0 0127  
               __pidataBANK1 02BF                    ?_SPI_Init 0077                    ?_PWM_Init 003B  
            ??_PWM_DutyCycle 003F               _OPTION_REGbits 0081                   ??_ADC_Init 0020  
                  ?_Lcd_Init 0077                    ?_Lcd_Port 0077                   _dataBuffer 0076  
                 __pbssBANK0 0054              _Oscillator_Init 0117                   __pmaintext 049B  
                    ?___lmul 0020                   __pintentry 0004               ___lmul@product 0029  
                  ?___ftpack 0020                    ?___lbtoft 0028                   ??_SPI_Init 0020  
                 ??_PWM_Init 003F                      _GO_DONE 00F9                      _OSCTUNE 0090  
                 ??_Lcd_Init 0024                   ??_Lcd_Port 0020                    ?_led_Demo 0077  
                 __stringtab 0015                      _Lcd_Cmd 018F        __size_of_eeprom_Write 0045  
          __end_of__npowers_ 009B              __size_of___lmul 0041                      ___lldiv 043B  
                    ___ftmul 06FD                      ___fttol 05D8                   ??___ftpack 0025  
                 ??___lbtoft 002B                    _ANSELbits 0188                      __ptext1 038C  
                    __ptext2 020E                      __ptext3 027D                      __ptext4 013E  
                    __ptext5 0132                      __ptext6 0347                      __ptext7 0569  
                    __ptext8 023C                      __ptext9 043B                      _g_state 0059  
                 _pinManager 020E                 __size_of_ISR 0020                      _dpowers 0025  
                  _T2CONbits 0012                      _rawData 0071      __size_of_Interrupt_Init 0003  
    __end_of_Oscillator_Init 011D                   ??_led_Demo 004E  __size_of_SPI_MasterTransmit 000A  
       end_of_initialization 07FC                 _eeprom_Write 0302              ___lldiv@divisor 002D  
            ___lldiv@counter 003A                    _RCSTAbits 0018                    Lcd_Port@a 0020  
                  _UART_Init 027D                    _TMR0_Init 013E                    _PORTAbits 0005  
                  _PORTBbits 0006               _Admin_PassWord 00D6                    _TRISAbits 0085  
                  _TRISBbits 0086                    _TRISCbits 0087           PWM_Init@iFrequency 003B  
          _system_Initialize 038C            __size_of_ADC_Init 0019           ?_system_Initialize 0077  
             _Admin_UserName 00C4                ??_eeprom_Read 0021                  _CM2CON0bits 0108  
                _CCP1CONbits 0017                    _TXSTAbits 0098                 _sTemperature 005C  
        ??_system_Initialize 0043                  ___ftmul@exp 003A             _reset_To_Factory 00DD  
             __end_of___lmul 027D                   ?_UART_Init 003B                  _BAUDCTLbits 0187  
                 ?_TMR0_Init 0077                  ?_pinManager 0077    __end_of_system_Initialize 03DB  
          __size_of_SPI_Init 000C            __size_of_PWM_Init 0045          start_initialization 07D0  
           ?_Oscillator_Init 0077                  __end_of_ISR 01E9        _data_TransferComplete 0075  
             _student_Number 00B0            __size_of_Lcd_Init 0060            __size_of_Lcd_Port 0018  
        __end_of_eeprom_Read 020E                     ??___lmul 0028                   init_fetch0 014D  
                __pdataBANK0 0061                  __pdataBANK1 00A0                _segment_Array 00BA  
             _Interrupt_Init 0114            __size_of___ftpack 006E            __size_of___lbtoft 001E  
                __pbssCOMMON 0071                    ___latbits 0002                __pcstackBANK0 0020  
      __end_of_PWM_DutyCycle 05D8            __size_of_led_Demo 0097                     ?_Lcd_Cmd 0077  
        __size_of_pinManager 002E                     ?___lldiv 002D                     ?___ftmul 0030  
                  __npowers_ 0074                     ?___fttol 0040                  ??_UART_Init 003F  
     __end_of_Interrupt_Init 0117                  ??_TMR0_Init 0020                    __pstrings 0015  
 __size_of_system_Initialize 004F                     _ADC_Init 0176                  _device_name 00A0  
    PWM_DutyCycle@iDutyCycle 003B                     _CMD_mode 0066            interrupt_function 0004  
                _eeprom_Read 01E9                     Lcd_Cmd@a 0023                     _PIR1bits 000C  
          UART_Init@baudRate 003B                     _SPI_Init 0132              ?_Interrupt_Init 0077  
          eeprom_Write@iData 0024                   _ADCON0bits 001F                  __stringbase 0024  
                 _ADCON1bits 009F                     _PWM_Init 0347   __end_of_SPI_MasterTransmit 0127  
                   _Lcd_Init 03DB                     _Lcd_Port 015E            ___lmul@multiplier 0020  
           __size_of_Lcd_Cmd 001C                   _EECON1bits 018C             __size_of___lldiv 0060  
           __size_of___ftmul 00D3             __size_of___fttol 008E                     ___ftpack 04FB  
                   ___lbtoft 01AB           __end_of__stringtab 0025                 ??_pinManager 0020  
                   __ptext10 0117                     __ptext11 03DB                     __ptext20 06FD  
                   __ptext12 018F                     __ptext21 04FB                     __ptext13 015E  
                   __ptext22 01E9                     __ptext14 0114                     __ptext23 011D  
                   __ptext15 0176                     __ptext24 01C9                     __ptext16 0666  
                   __ptext17 0302                     __ptext18 01AB                     __ptext19 05D8  
                   _led_Demo 0666            __CFG_BOR4V$BOR40V 0000                     __powers_ 004D  
              __size_of_main 0060          eeprom_Read@iAddress 0022           __end_of_pinManager 023C  
        eeprom_Read@dataRead 0023                   _BTH_reboot 0061                   _INTCONbits 000B  
              led_Demo@speed 0052                     init_ram0 0151                     intlevel1 0000  
   __size_of_Oscillator_Init 0006             ___lldiv@dividend 0031                    stringcode 001F  
                _shitf_Speed 005B                  _temperature 0054             ___lldiv@quotient 0036  
           _segment_Variable 0073                     stringdir 001F                     stringtab 0015  
              ?_eeprom_Write 0021                 ?_eeprom_Read 0077                   _SSPCONbits 0014  
